---
triple:          'arm64-apple-darwin'
binary-path:     '/Users/albin/Documents/Polytech/AdventOfCode/2024/day5/P1'
relocations:
  - { offsetInCU: 0x6BDB, offset: 0x6BDB, size: 0x8, addend: 0x0, symName: __ZNSt3__124__put_character_sequenceB7v160006IcNS_11char_traitsIcEEEERNS_13basic_ostreamIT_T0_EES7_PKS4_m, symObjAddr: 0x4C08, symBinAddr: 0x10000792C, symSize: 0x1EC }
  - { offsetInCU: 0x9120, offset: 0x9120, size: 0x8, addend: 0x0, symName: __ZNSt3__17getlineB7v160006IcNS_11char_traitsIcEENS_9allocatorIcEEEERNS_13basic_istreamIT_T0_EES9_RNS_12basic_stringIS6_S7_T1_EES6_, symObjAddr: 0x354, symBinAddr: 0x100003078, symSize: 0x238 }
  - { offsetInCU: 0x91DE, offset: 0x91DE, size: 0x8, addend: 0x0, symName: __ZNSt3__1lsB7v160006INS_11char_traitsIcEEEERNS_13basic_ostreamIcT_EES6_PKc, symObjAddr: 0x624, symBinAddr: 0x100003348, symSize: 0x48 }
  - { offsetInCU: 0x9224, offset: 0x9224, size: 0x8, addend: 0x0, symName: __ZNSt3__1lsB7v160006IcNS_11char_traitsIcEENS_9allocatorIcEEEERNS_13basic_ostreamIT_T0_EES9_RKNS_12basic_stringIS6_S7_T1_EE, symObjAddr: 0x66C, symBinAddr: 0x100003390, symSize: 0x4C }
  - { offsetInCU: 0x927C, offset: 0x927C, size: 0x8, addend: 0x0, symName: __ZNSt3__14endlB7v160006IcNS_11char_traitsIcEEEERNS_13basic_ostreamIT_T0_EES7_, symObjAddr: 0x6E4, symBinAddr: 0x100003408, symSize: 0x58 }
  - { offsetInCU: 0x92C7, offset: 0x92C7, size: 0x8, addend: 0x0, symName: __ZNSt3__1neB7v160006IPP6SommetEEbRKNS_11__wrap_iterIT_EES8_, symObjAddr: 0x8C0, symBinAddr: 0x1000035E4, symSize: 0x34 }
  - { offsetInCU: 0x930A, offset: 0x930A, size: 0x8, addend: 0x0, symName: __ZNSt3__14findB7v160006INS_11__wrap_iterIPP6SommetEES3_EET_S6_S6_RKT0_, symObjAddr: 0xCEC, symBinAddr: 0x100003A10, symSize: 0x80 }
  - { offsetInCU: 0xBBB7, offset: 0xBBB7, size: 0x8, addend: 0x0, symName: __ZNSt3__17getlineB7v160006IcNS_11char_traitsIcEENS_9allocatorIcEEEERNS_13basic_istreamIT_T0_EES9_RNS_12basic_stringIS6_S7_T1_EE, symObjAddr: 0x1888, symBinAddr: 0x1000045AC, symSize: 0x5C }
  - { offsetInCU: 0xBC1A, offset: 0xBC1A, size: 0x8, addend: 0x0, symName: __ZNSt3__1eqB7v160006IPP6SommetEEbRKNS_11__wrap_iterIT_EES8_, symObjAddr: 0x1B2C, symBinAddr: 0x100004850, symSize: 0x48 }
  - { offsetInCU: 0xBC5D, offset: 0xBC5D, size: 0x8, addend: 0x0, symName: __ZNSt3__119__debug_db_insert_cB7v160006INS_12basic_stringIcNS_11char_traitsIcEENS_9allocatorIcEEEEEEvPT_, symObjAddr: 0x1D28, symBinAddr: 0x100004A4C, symSize: 0x10 }
  - { offsetInCU: 0xBC8E, offset: 0xBC8E, size: 0x8, addend: 0x0, symName: __ZNSt3__119__debug_db_insert_cB7v160006INS_6vectorIP6SommetNS_9allocatorIS3_EEEEEEvPT_, symObjAddr: 0x1F00, symBinAddr: 0x100004C24, symSize: 0x10 }
  - { offsetInCU: 0xBCBF, offset: 0xBCBF, size: 0x8, addend: 0x0, symName: __ZNSt3__118__debug_db_erase_cB7v160006INS_6vectorIP6SommetNS_9allocatorIS3_EEEEEEvPT_, symObjAddr: 0x21C4, symBinAddr: 0x100004EE8, symSize: 0x10 }
  - { offsetInCU: 0xBCF0, offset: 0xBCF0, size: 0x8, addend: 0x0, symName: __ZNSt3__112__to_addressB7v160006IP6SommetEEPT_S4_, symObjAddr: 0x2308, symBinAddr: 0x10000502C, symSize: 0x14 }
  - { offsetInCU: 0xBD25, offset: 0xBD25, size: 0x8, addend: 0x0, symName: __ZNSt3__119__libcpp_deallocateB7v160006EPvmm, symObjAddr: 0x2428, symBinAddr: 0x10000514C, symSize: 0x30 }
  - { offsetInCU: 0xBD6D, offset: 0xBD6D, size: 0x8, addend: 0x0, symName: __ZNSt3__127__do_deallocate_handle_sizeB7v160006IJEEEvPvmDpT_, symObjAddr: 0x2458, symBinAddr: 0x10000517C, symSize: 0x28 }
  - { offsetInCU: 0xBDAB, offset: 0xBDAB, size: 0x8, addend: 0x0, symName: __ZNSt3__124__libcpp_operator_deleteB7v160006IJPvEEEvDpT_, symObjAddr: 0x2480, symBinAddr: 0x1000051A4, symSize: 0x24 }
  - { offsetInCU: 0xBDE0, offset: 0xBDE0, size: 0x8, addend: 0x0, symName: __ZNSt3__119__debug_db_insert_cB7v160006INS_6vectorIiNS_9allocatorIiEEEEEEvPT_, symObjAddr: 0x2A04, symBinAddr: 0x100005728, symSize: 0x10 }
  - { offsetInCU: 0xBE11, offset: 0xBE11, size: 0x8, addend: 0x0, symName: __ZNSt3__118__debug_db_erase_cB7v160006INS_6vectorIiNS_9allocatorIiEEEEEEvPT_, symObjAddr: 0x2CC8, symBinAddr: 0x1000059EC, symSize: 0x10 }
  - { offsetInCU: 0xBE42, offset: 0xBE42, size: 0x8, addend: 0x0, symName: __ZNSt3__112__to_addressB7v160006IiEEPT_S2_, symObjAddr: 0x2DE4, symBinAddr: 0x100005B08, symSize: 0x14 }
  - { offsetInCU: 0xBE77, offset: 0xBE77, size: 0x8, addend: 0x0, symName: __ZNSt3__125__debug_db_invalidate_allB7v160006INS_12basic_stringIcNS_11char_traitsIcEENS_9allocatorIcEEEEEEvPT_, symObjAddr: 0x32F8, symBinAddr: 0x10000601C, symSize: 0x10 }
  - { offsetInCU: 0xC0DD, offset: 0xC0DD, size: 0x8, addend: 0x0, symName: __ZNSt3__13maxB7v160006ImEERKT_S3_S3_, symObjAddr: 0x3BD0, symBinAddr: 0x1000068F4, symSize: 0x2C }
  - { offsetInCU: 0xC120, offset: 0xC120, size: 0x8, addend: 0x0, symName: __ZNSt3__13minB7v160006ImEERKT_S3_S3_, symObjAddr: 0x3BFC, symBinAddr: 0x100006920, symSize: 0x2C }
  - { offsetInCU: 0xC364, offset: 0xC364, size: 0x8, addend: 0x0, symName: __ZNSt3__13minB7v160006ImNS_6__lessImmEEEERKT_S5_S5_T0_, symObjAddr: 0x3C88, symBinAddr: 0x1000069AC, symSize: 0x54 }
  - { offsetInCU: 0xC3F9, offset: 0xC3F9, size: 0x8, addend: 0x0, symName: __ZNSt3__120__throw_length_errorB7v160006EPKc, symObjAddr: 0x3D64, symBinAddr: 0x100006A88, symSize: 0x64 }
  - { offsetInCU: 0xC421, offset: 0xC421, size: 0x8, addend: 0x0, symName: __ZNSt3__13maxB7v160006ImNS_6__lessImmEEEERKT_S5_S5_T0_, symObjAddr: 0x3E48, symBinAddr: 0x100006B6C, symSize: 0x54 }
  - { offsetInCU: 0xC47B, offset: 0xC47B, size: 0x8, addend: 0x0, symName: __ZNSt3__119__allocate_at_leastB7v160006INS_9allocatorIiEEEENS_19__allocation_resultINS_16allocator_traitsIT_E7pointerEEERS5_m, symObjAddr: 0x3FAC, symBinAddr: 0x100006CD0, symSize: 0x40 }
  - { offsetInCU: 0xC4BE, offset: 0xC4BE, size: 0x8, addend: 0x0, symName: __ZNSt3__117__libcpp_allocateB7v160006Emm, symObjAddr: 0x4130, symBinAddr: 0x100006E54, symSize: 0x28 }
  - { offsetInCU: 0xC4FB, offset: 0xC4FB, size: 0x8, addend: 0x0, symName: __ZNSt3__121__libcpp_operator_newB7v160006IJmEEEPvDpT_, symObjAddr: 0x4158, symBinAddr: 0x100006E7C, symSize: 0x24 }
  - { offsetInCU: 0xC534, offset: 0xC534, size: 0x8, addend: 0x0, symName: __ZNSt3__142__uninitialized_allocator_move_if_noexceptB7v160006INS_9allocatorIiEENS_16reverse_iteratorIPiEES5_ivEET1_RT_T0_S9_S6_, symObjAddr: 0x41E0, symBinAddr: 0x100006F04, symSize: 0x78 }
  - { offsetInCU: 0xC5B1, offset: 0xC5B1, size: 0x8, addend: 0x0, symName: __ZNSt3__14swapB7v160006IPiEENS_9enable_ifIXaasr21is_move_constructibleIT_EE5valuesr18is_move_assignableIS3_EE5valueEvE4typeERS3_S6_, symObjAddr: 0x42A4, symBinAddr: 0x100006FC8, symSize: 0x3C }
  - { offsetInCU: 0xC602, offset: 0xC602, size: 0x8, addend: 0x0, symName: __ZNSt3__125__debug_db_invalidate_allB7v160006INS_6vectorIiNS_9allocatorIiEEEEEEvPT_, symObjAddr: 0x438C, symBinAddr: 0x1000070B0, symSize: 0x10 }
  - { offsetInCU: 0xC633, offset: 0xC633, size: 0x8, addend: 0x0, symName: __ZNSt3__14moveB7v160006INS_16reverse_iteratorIPiEES3_EET0_T_S5_S4_, symObjAddr: 0x439C, symBinAddr: 0x1000070C0, symSize: 0x78 }
  - { offsetInCU: 0xC68D, offset: 0xC68D, size: 0x8, addend: 0x0, symName: __ZNSt3__16__moveB7v160006INS_17_ClassicAlgPolicyENS_16reverse_iteratorIPiEES4_S4_EENS_4pairIT0_T2_EES6_T1_S7_, symObjAddr: 0x4414, symBinAddr: 0x100007138, symSize: 0x64 }
  - { offsetInCU: 0xC6F9, offset: 0xC6F9, size: 0x8, addend: 0x0, symName: __ZNSt3__123__dispatch_copy_or_moveB7v160006INS_17_ClassicAlgPolicyENS_11__move_loopIS1_EENS_14__move_trivialENS_16reverse_iteratorIPiEES7_S7_EENS_4pairIT2_T4_EES9_T3_SA_, symObjAddr: 0x4478, symBinAddr: 0x10000719C, symSize: 0x64 }
  - { offsetInCU: 0xC777, offset: 0xC777, size: 0x8, addend: 0x0, symName: __ZNSt3__121__unwrap_and_dispatchB7v160006INS_10__overloadINS_11__move_loopINS_17_ClassicAlgPolicyEEENS_14__move_trivialEEENS_16reverse_iteratorIPiEES9_S9_Li0EEENS_4pairIT0_T2_EESB_T1_SC_, symObjAddr: 0x44DC, symBinAddr: 0x100007200, symSize: 0x12C }
  - { offsetInCU: 0xC807, offset: 0xC807, size: 0x8, addend: 0x0, symName: __ZNSt3__114__unwrap_rangeB7v160006INS_16reverse_iteratorIPiEES3_EENS_4pairIT0_S5_EET_S7_, symObjAddr: 0x4608, symBinAddr: 0x10000732C, symSize: 0x84 }
  - { offsetInCU: 0xC9C1, offset: 0xC9C1, size: 0x8, addend: 0x0, symName: __ZNSt3__113__unwrap_iterB7v160006INS_16reverse_iteratorIPiEENS_18__unwrap_iter_implIS3_Lb0EEELi0EEEDTclsrT0_8__unwrapclsr3stdE7declvalIT_EEEES7_, symObjAddr: 0x472C, symBinAddr: 0x100007450, symSize: 0x44 }
  - { offsetInCU: 0xCA05, offset: 0xCA05, size: 0x8, addend: 0x0, symName: __ZNSt3__19make_pairB7v160006INS_16reverse_iteratorIPiEES3_EENS_4pairINS_18__unwrap_ref_decayIT_E4typeENS5_IT0_E4typeEEEOS6_OS9_, symObjAddr: 0x4770, symBinAddr: 0x100007494, symSize: 0x38 }
  - { offsetInCU: 0xCA54, offset: 0xCA54, size: 0x8, addend: 0x0, symName: __ZNSt3__114__rewrap_rangeB7v160006INS_16reverse_iteratorIPiEES3_EET_S4_T0_, symObjAddr: 0x47A8, symBinAddr: 0x1000074CC, symSize: 0x5C }
  - { offsetInCU: 0xCAA0, offset: 0xCAA0, size: 0x8, addend: 0x0, symName: __ZNSt3__113__rewrap_iterB7v160006INS_16reverse_iteratorIPiEES3_NS_18__unwrap_iter_implIS3_Lb0EEEEET_S6_T0_, symObjAddr: 0x4804, symBinAddr: 0x100007528, symSize: 0x74 }
  - { offsetInCU: 0xCAF5, offset: 0xCAF5, size: 0x8, addend: 0x0, symName: __ZNSt3__1neB7v160006IPiS1_EEbRKNS_16reverse_iteratorIT_EERKNS2_IT0_EE, symObjAddr: 0x4878, symBinAddr: 0x10000759C, symSize: 0x48 }
  - { offsetInCU: 0xCC26, offset: 0xCC26, size: 0x8, addend: 0x0, symName: __ZNSt3__116__pad_and_outputB7v160006IcNS_11char_traitsIcEEEENS_19ostreambuf_iteratorIT_T0_EES6_PKS4_S8_S8_RNS_8ios_baseES4_, symObjAddr: 0x4E44, symBinAddr: 0x100007B68, symSize: 0x240 }
  - { offsetInCU: 0xCCF5, offset: 0xCCF5, size: 0x8, addend: 0x0, symName: __ZNSt3__112__to_addressB7v160006IKcEEPT_S3_, symObjAddr: 0x5290, symBinAddr: 0x100007FB4, symSize: 0x14 }
  - { offsetInCU: 0xCD5D, offset: 0xCD5D, size: 0x8, addend: 0x0, symName: __ZNSt3__19use_facetB7v160006INS_5ctypeIcEEEERKT_RKNS_6localeE, symObjAddr: 0x5434, symBinAddr: 0x100008158, symSize: 0x2C }
  - { offsetInCU: 0xD22C, offset: 0xD22C, size: 0x8, addend: 0x0, symName: __ZNSt3__118__constexpr_strlenB7v160006EPKc, symObjAddr: 0x5498, symBinAddr: 0x1000081BC, symSize: 0x24 }
  - { offsetInCU: 0xD258, offset: 0xD258, size: 0x8, addend: 0x0, symName: __ZNSt3__119__allocate_at_leastB7v160006INS_9allocatorIP6SommetEEEENS_19__allocation_resultINS_16allocator_traitsIT_E7pointerEEERS7_m, symObjAddr: 0x5C0C, symBinAddr: 0x100008930, symSize: 0x40 }
  - { offsetInCU: 0xD29B, offset: 0xD29B, size: 0x8, addend: 0x0, symName: __ZNSt3__142__uninitialized_allocator_move_if_noexceptB7v160006INS_9allocatorIP6SommetEENS_16reverse_iteratorIPS3_EES7_S3_vEET1_RT_T0_SB_S8_, symObjAddr: 0x5DC0, symBinAddr: 0x100008AE4, symSize: 0x78 }
  - { offsetInCU: 0xD318, offset: 0xD318, size: 0x8, addend: 0x0, symName: __ZNSt3__14swapB7v160006IPP6SommetEENS_9enable_ifIXaasr21is_move_constructibleIT_EE5valuesr18is_move_assignableIS5_EE5valueEvE4typeERS5_S8_, symObjAddr: 0x5E84, symBinAddr: 0x100008BA8, symSize: 0x3C }
  - { offsetInCU: 0xD369, offset: 0xD369, size: 0x8, addend: 0x0, symName: __ZNSt3__125__debug_db_invalidate_allB7v160006INS_6vectorIP6SommetNS_9allocatorIS3_EEEEEEvPT_, symObjAddr: 0x5F6C, symBinAddr: 0x100008C90, symSize: 0x10 }
  - { offsetInCU: 0xD39A, offset: 0xD39A, size: 0x8, addend: 0x0, symName: __ZNSt3__14moveB7v160006INS_16reverse_iteratorIPP6SommetEES5_EET0_T_S7_S6_, symObjAddr: 0x5F7C, symBinAddr: 0x100008CA0, symSize: 0x78 }
  - { offsetInCU: 0xD3F4, offset: 0xD3F4, size: 0x8, addend: 0x0, symName: __ZNSt3__16__moveB7v160006INS_17_ClassicAlgPolicyENS_16reverse_iteratorIPP6SommetEES6_S6_EENS_4pairIT0_T2_EES8_T1_S9_, symObjAddr: 0x5FF4, symBinAddr: 0x100008D18, symSize: 0x64 }
  - { offsetInCU: 0xD460, offset: 0xD460, size: 0x8, addend: 0x0, symName: __ZNSt3__123__dispatch_copy_or_moveB7v160006INS_17_ClassicAlgPolicyENS_11__move_loopIS1_EENS_14__move_trivialENS_16reverse_iteratorIPP6SommetEES9_S9_EENS_4pairIT2_T4_EESB_T3_SC_, symObjAddr: 0x6058, symBinAddr: 0x100008D7C, symSize: 0x64 }
  - { offsetInCU: 0xD4DE, offset: 0xD4DE, size: 0x8, addend: 0x0, symName: __ZNSt3__121__unwrap_and_dispatchB7v160006INS_10__overloadINS_11__move_loopINS_17_ClassicAlgPolicyEEENS_14__move_trivialEEENS_16reverse_iteratorIPP6SommetEESB_SB_Li0EEENS_4pairIT0_T2_EESD_T1_SE_, symObjAddr: 0x60BC, symBinAddr: 0x100008DE0, symSize: 0x12C }
  - { offsetInCU: 0xD56E, offset: 0xD56E, size: 0x8, addend: 0x0, symName: __ZNSt3__114__unwrap_rangeB7v160006INS_16reverse_iteratorIPP6SommetEES5_EENS_4pairIT0_S7_EET_S9_, symObjAddr: 0x61E8, symBinAddr: 0x100008F0C, symSize: 0x84 }
  - { offsetInCU: 0xD68E, offset: 0xD68E, size: 0x8, addend: 0x0, symName: __ZNSt3__113__unwrap_iterB7v160006INS_16reverse_iteratorIPP6SommetEENS_18__unwrap_iter_implIS5_Lb0EEELi0EEEDTclsrT0_8__unwrapclsr3stdE7declvalIT_EEEES9_, symObjAddr: 0x630C, symBinAddr: 0x100009030, symSize: 0x44 }
  - { offsetInCU: 0xD6D2, offset: 0xD6D2, size: 0x8, addend: 0x0, symName: __ZNSt3__19make_pairB7v160006INS_16reverse_iteratorIPP6SommetEES5_EENS_4pairINS_18__unwrap_ref_decayIT_E4typeENS7_IT0_E4typeEEEOS8_OSB_, symObjAddr: 0x6350, symBinAddr: 0x100009074, symSize: 0x38 }
  - { offsetInCU: 0xD721, offset: 0xD721, size: 0x8, addend: 0x0, symName: __ZNSt3__114__rewrap_rangeB7v160006INS_16reverse_iteratorIPP6SommetEES5_EET_S6_T0_, symObjAddr: 0x6388, symBinAddr: 0x1000090AC, symSize: 0x5C }
  - { offsetInCU: 0xD76D, offset: 0xD76D, size: 0x8, addend: 0x0, symName: __ZNSt3__113__rewrap_iterB7v160006INS_16reverse_iteratorIPP6SommetEES5_NS_18__unwrap_iter_implIS5_Lb0EEEEET_S8_T0_, symObjAddr: 0x63E4, symBinAddr: 0x100009108, symSize: 0x74 }
  - { offsetInCU: 0xD7C2, offset: 0xD7C2, size: 0x8, addend: 0x0, symName: __ZNSt3__1neB7v160006IPP6SommetS3_EEbRKNS_16reverse_iteratorIT_EERKNS4_IT0_EE, symObjAddr: 0x6458, symBinAddr: 0x10000917C, symSize: 0x48 }
  - { offsetInCU: 0xD87A, offset: 0xD87A, size: 0x8, addend: 0x0, symName: __ZNSt3__1miB7v160006IPKP6SommetS4_EEDTmicldtfp_4baseEcldtfp0_4baseEERKNS_11__wrap_iterIT_EERKNS6_IT0_EE, symObjAddr: 0x67E8, symBinAddr: 0x10000950C, symSize: 0x48 }
  - { offsetInCU: 0xD8C6, offset: 0xD8C6, size: 0x8, addend: 0x0, symName: __ZNSt3__14moveB7v160006IPP6SommetS3_EET0_T_S5_S4_, symObjAddr: 0x68BC, symBinAddr: 0x1000095E0, symSize: 0x40 }
  - { offsetInCU: 0xD920, offset: 0xD920, size: 0x8, addend: 0x0, symName: __ZNSt3__16__moveB7v160006INS_17_ClassicAlgPolicyEPP6SommetS4_S4_EENS_4pairIT0_T2_EES6_T1_S7_, symObjAddr: 0x6AA0, symBinAddr: 0x1000097C4, symSize: 0x44 }
  - { offsetInCU: 0xD98C, offset: 0xD98C, size: 0x8, addend: 0x0, symName: __ZNSt3__123__dispatch_copy_or_moveB7v160006INS_17_ClassicAlgPolicyENS_11__move_loopIS1_EENS_14__move_trivialEPP6SommetS7_S7_EENS_4pairIT2_T4_EES9_T3_SA_, symObjAddr: 0x6AE4, symBinAddr: 0x100009808, symSize: 0x44 }
  - { offsetInCU: 0xDA0A, offset: 0xDA0A, size: 0x8, addend: 0x0, symName: __ZNSt3__121__unwrap_and_dispatchB7v160006INS_10__overloadINS_11__move_loopINS_17_ClassicAlgPolicyEEENS_14__move_trivialEEEPP6SommetS9_S9_Li0EEENS_4pairIT0_T2_EESB_T1_SC_, symObjAddr: 0x6B28, symBinAddr: 0x10000984C, symSize: 0xB4 }
  - { offsetInCU: 0xDA98, offset: 0xDA98, size: 0x8, addend: 0x0, symName: __ZNSt3__114__unwrap_rangeB7v160006IPP6SommetS3_EENS_4pairIT0_S5_EET_S7_, symObjAddr: 0x6BDC, symBinAddr: 0x100009900, symSize: 0x60 }
  - { offsetInCU: 0xDC2D, offset: 0xDC2D, size: 0x8, addend: 0x0, symName: __ZNSt3__113__unwrap_iterB7v160006IPP6SommetNS_18__unwrap_iter_implIS3_Lb1EEELi0EEEDTclsrT0_8__unwrapclsr3stdE7declvalIT_EEEES7_, symObjAddr: 0x6C84, symBinAddr: 0x1000099A8, symSize: 0x24 }
  - { offsetInCU: 0xDC71, offset: 0xDC71, size: 0x8, addend: 0x0, symName: __ZNSt3__19make_pairB7v160006IPP6SommetS3_EENS_4pairINS_18__unwrap_ref_decayIT_E4typeENS5_IT0_E4typeEEEOS6_OS9_, symObjAddr: 0x6CA8, symBinAddr: 0x1000099CC, symSize: 0x38 }
  - { offsetInCU: 0xDCC0, offset: 0xDCC0, size: 0x8, addend: 0x0, symName: __ZNSt3__114__rewrap_rangeB7v160006IPP6SommetS3_EET_S4_T0_, symObjAddr: 0x6CE0, symBinAddr: 0x100009A04, symSize: 0x2C }
  - { offsetInCU: 0xDD0C, offset: 0xDD0C, size: 0x8, addend: 0x0, symName: __ZNSt3__113__rewrap_iterB7v160006IPP6SommetS3_NS_18__unwrap_iter_implIS3_Lb1EEEEET_S6_T0_, symObjAddr: 0x6D0C, symBinAddr: 0x100009A30, symSize: 0x3C }
  - { offsetInCU: 0xDD61, offset: 0xDD61, size: 0x8, addend: 0x0, symName: __ZNSt3__119__copy_trivial_implB7v160006IP6SommetS2_EENS_4pairIPT_PT0_EES5_S5_S7_, symObjAddr: 0x6D48, symBinAddr: 0x100009A6C, symSize: 0x84 }
  - { offsetInCU: 0xDDC9, offset: 0xDDC9, size: 0x8, addend: 0x0, symName: __ZNSt3__19make_pairB7v160006IRPP6SommetS3_EENS_4pairINS_18__unwrap_ref_decayIT_E4typeENS6_IT0_E4typeEEEOS7_OSA_, symObjAddr: 0x6DCC, symBinAddr: 0x100009AF0, symSize: 0x38 }
  - { offsetInCU: 0xDE6B, offset: 0xDE6B, size: 0x8, addend: 0x0, symName: __ZNSt3__119__debug_db_insert_cB7v160006INS_13unordered_setIiNS_4hashIiEENS_8equal_toIiEENS_9allocatorIiEEEEEEvPT_, symObjAddr: 0x6FC0, symBinAddr: 0x100009CE4, symSize: 0x10 }
  - { offsetInCU: 0xDE9C, offset: 0xDE9C, size: 0x8, addend: 0x0, symName: __ZNSt3__118__debug_db_erase_cB7v160006INS_12__hash_tableIiNS_4hashIiEENS_8equal_toIiEENS_9allocatorIiEEEEEEvPT_, symObjAddr: 0x76E8, symBinAddr: 0x10000A40C, symSize: 0x10 }
  - { offsetInCU: 0xDF8D, offset: 0xDF8D, size: 0x8, addend: 0x0, symName: __ZNSt3__122__make_exception_guardB7v160006INS_6vectorIiNS_9allocatorIiEEE16__destroy_vectorEEENS_28__exception_guard_exceptionsIT_EES7_, symObjAddr: 0x7C84, symBinAddr: 0x10000A9A8, symSize: 0x40 }
  - { offsetInCU: 0xDFC2, offset: 0xDFC2, size: 0x8, addend: 0x0, symName: __ZNSt3__130__uninitialized_allocator_copyB7v160006INS_9allocatorIiEEPiS3_S3_EET2_RT_T0_T1_S4_, symObjAddr: 0x7EF8, symBinAddr: 0x10000AC1C, symSize: 0xF4 }
  - { offsetInCU: 0xE060, offset: 0xE060, size: 0x8, addend: 0x0, symName: __ZNSt3__122__make_exception_guardB7v160006INS_29_AllocatorDestroyRangeReverseINS_9allocatorIiEEPiEEEENS_28__exception_guard_exceptionsIT_EES7_, symObjAddr: 0x7FEC, symBinAddr: 0x10000AD10, symSize: 0x4C }
  - { offsetInCU: 0xE096, offset: 0xE096, size: 0x8, addend: 0x0, symName: __ZNSt3__119__allocator_destroyB7v160006INS_9allocatorIiEENS_16reverse_iteratorIPiEES5_EEvRT_T0_T1_, symObjAddr: 0x8274, symBinAddr: 0x10000AF98, symSize: 0x70 }
  - { offsetInCU: 0xE0F9, offset: 0xE0F9, size: 0x8, addend: 0x0, symName: __ZNSt3__112__to_addressB7v160006INS_16reverse_iteratorIPiEEvEENS_5decayIDTclsr19__to_address_helperIT_EE6__callclsr3stdE7declvalIRKS5_EEEEE4typeES7_, symObjAddr: 0x82E4, symBinAddr: 0x10000B008, symSize: 0x24 }
  - { offsetInCU: 0xE4A6, offset: 0xE4A6, size: 0x8, addend: 0x0, symName: __ZSt28__throw_bad_array_new_lengthB7v160006v, symObjAddr: 0x40FC, symBinAddr: 0x100006E20, symSize: 0x34 }
  - { offsetInCU: 0xEC00, offset: 0xEC00, size: 0x8, addend: 0x0, symName: __ZNSt3__16vectorIiNS_9allocatorIiEEE26__swap_out_circular_bufferERNS_14__split_bufferIiRS2_EE, symObjAddr: 0x3A10, symBinAddr: 0x100006734, symSize: 0x118 }
  - { offsetInCU: 0xED13, offset: 0xED13, size: 0x8, addend: 0x0, symName: __ZNSt3__16vectorIP6SommetNS_9allocatorIS2_EEE26__swap_out_circular_bufferERNS_14__split_bufferIS2_RS4_EE, symObjAddr: 0x58A4, symBinAddr: 0x1000085C8, symSize: 0x118 }
  - { offsetInCU: 0x10F99, offset: 0x10F99, size: 0x8, addend: 0x0, symName: __Z5splitRKNSt3__112basic_stringIcNS_11char_traitsIcEENS_9allocatorIcEEEERKc, symObjAddr: 0x0, symBinAddr: 0x100002D24, symSize: 0x200 }
  - { offsetInCU: 0x110E9, offset: 0x110E9, size: 0x8, addend: 0x0, symName: __ZNSt3__119basic_istringstreamIcNS_11char_traitsIcEENS_9allocatorIcEEEC1B7v160006ERKNS_12basic_stringIcS2_S4_EEj, symObjAddr: 0x200, symBinAddr: 0x100002F24, symSize: 0xFC }
  - { offsetInCU: 0x11130, offset: 0x11130, size: 0x8, addend: 0x0, symName: __ZNSt3__112basic_stringIcNS_11char_traitsIcEENS_9allocatorIcEEEC1B7v160006Ev, symObjAddr: 0x2FC, symBinAddr: 0x100003020, symSize: 0x2C }
  - { offsetInCU: 0x11159, offset: 0x11159, size: 0x8, addend: 0x0, symName: __ZNSt3__16vectorIiNS_9allocatorIiEEEC1B7v160006Ev, symObjAddr: 0x328, symBinAddr: 0x10000304C, symSize: 0x2C }
  - { offsetInCU: 0x11182, offset: 0x11182, size: 0x8, addend: 0x0, symName: __ZNKSt3__19basic_iosIcNS_11char_traitsIcEEEcvbB7v160006Ev, symObjAddr: 0x58C, symBinAddr: 0x1000032B0, symSize: 0x2C }
  - { offsetInCU: 0x111A6, offset: 0x111A6, size: 0x8, addend: 0x0, symName: __ZNSt3__16vectorIiNS_9allocatorIiEEE9push_backB7v160006EOi, symObjAddr: 0x5B8, symBinAddr: 0x1000032DC, symSize: 0x6C }
  - { offsetInCU: 0x111DC, offset: 0x111DC, size: 0x8, addend: 0x0, symName: __ZNSt3__113basic_ostreamIcNS_11char_traitsIcEEElsB7v160006EPFRS3_S4_E, symObjAddr: 0x6B8, symBinAddr: 0x1000033DC, symSize: 0x2C }
  - { offsetInCU: 0x1120F, offset: 0x1120F, size: 0x8, addend: 0x0, symName: __ZNSt3__16vectorIiNS_9allocatorIiEEED1B7v160006Ev, symObjAddr: 0x748, symBinAddr: 0x10000346C, symSize: 0x2C }
  - { offsetInCU: 0x1123D, offset: 0x1123D, size: 0x8, addend: 0x0, symName: __ZNSt3__119basic_istringstreamIcNS_11char_traitsIcEENS_9allocatorIcEEED1Ev, symObjAddr: 0x774, symBinAddr: 0x100003498, symSize: 0x40 }
  - { offsetInCU: 0x11268, offset: 0x11268, size: 0x8, addend: 0x0, symName: __Z10findSommetPNSt3__16vectorIP6SommetNS_9allocatorIS2_EEEEi, symObjAddr: 0x7B4, symBinAddr: 0x1000034D8, symSize: 0xAC }
  - { offsetInCU: 0x112F5, offset: 0x112F5, size: 0x8, addend: 0x0, symName: __ZNSt3__16vectorIP6SommetNS_9allocatorIS2_EEE5beginB7v160006Ev, symObjAddr: 0x860, symBinAddr: 0x100003584, symSize: 0x30 }
  - { offsetInCU: 0x1131B, offset: 0x1131B, size: 0x8, addend: 0x0, symName: __ZNSt3__16vectorIP6SommetNS_9allocatorIS2_EEE3endB7v160006Ev, symObjAddr: 0x890, symBinAddr: 0x1000035B4, symSize: 0x30 }
  - { offsetInCU: 0x11342, offset: 0x11342, size: 0x8, addend: 0x0, symName: __ZNKSt3__111__wrap_iterIPP6SommetEdeB7v160006Ev, symObjAddr: 0x8F4, symBinAddr: 0x100003618, symSize: 0x18 }
  - { offsetInCU: 0x11367, offset: 0x11367, size: 0x8, addend: 0x0, symName: __ZNSt3__111__wrap_iterIPP6SommetEppB7v160006Ev, symObjAddr: 0x90C, symBinAddr: 0x100003630, symSize: 0x20 }
  - { offsetInCU: 0x1138C, offset: 0x1138C, size: 0x8, addend: 0x0, symName: __Z13addToTheGraphPNSt3__16vectorIP6SommetNS_9allocatorIS2_EEEES6_NS0_IiNS3_IiEEEE, symObjAddr: 0x92C, symBinAddr: 0x100003650, symSize: 0x258 }
  - { offsetInCU: 0x11444, offset: 0x11444, size: 0x8, addend: 0x0, symName: __ZNSt3__16vectorIiNS_9allocatorIiEEEixB7v160006Em, symObjAddr: 0xB84, symBinAddr: 0x1000038A8, symSize: 0x24 }
  - { offsetInCU: 0x1147A, offset: 0x1147A, size: 0x8, addend: 0x0, symName: __ZN6SommetC1Ei, symObjAddr: 0xBA8, symBinAddr: 0x1000038CC, symSize: 0x34 }
  - { offsetInCU: 0x114B0, offset: 0x114B0, size: 0x8, addend: 0x0, symName: __ZNSt3__16vectorIP6SommetNS_9allocatorIS2_EEE9push_backB7v160006ERKS2_, symObjAddr: 0xBDC, symBinAddr: 0x100003900, symSize: 0x6C }
  - { offsetInCU: 0x114E5, offset: 0x114E5, size: 0x8, addend: 0x0, symName: __ZNSt3__16vectorIP6SommetNS_9allocatorIS2_EEE5eraseB7v160006ENS_11__wrap_iterIPKS2_EE, symObjAddr: 0xC48, symBinAddr: 0x10000396C, symSize: 0xA4 }
  - { offsetInCU: 0x11543, offset: 0x11543, size: 0x8, addend: 0x0, symName: __ZNSt3__111__wrap_iterIPKP6SommetEC1B7v160006IPS2_EERKNS0_IT_EEPNS_9enable_ifIXsr14is_convertibleIS8_S4_EE5valueEvE4typeE, symObjAddr: 0xD6C, symBinAddr: 0x100003A90, symSize: 0x3C }
  - { offsetInCU: 0x1158E, offset: 0x1158E, size: 0x8, addend: 0x0, symName: __Z8afficherP6Sommet, symObjAddr: 0xDA8, symBinAddr: 0x100003ACC, symSize: 0x14C }
  - { offsetInCU: 0x1165D, offset: 0x1165D, size: 0x8, addend: 0x0, symName: __ZNKSt3__16vectorIP6SommetNS_9allocatorIS2_EEE5emptyB7v160006Ev, symObjAddr: 0xEF4, symBinAddr: 0x100003C18, symSize: 0x28 }
  - { offsetInCU: 0x11681, offset: 0x11681, size: 0x8, addend: 0x0, symName: __Z7isValidPNSt3__16vectorIP6SommetNS_9allocatorIS2_EEEENS0_IiNS3_IiEEEE, symObjAddr: 0xF1C, symBinAddr: 0x100003C40, symSize: 0x2CC }
  - { offsetInCU: 0x11ABA, offset: 0x11ABA, size: 0x8, addend: 0x0, symName: __ZNSt3__113unordered_setIiNS_4hashIiEENS_8equal_toIiEENS_9allocatorIiEEEC1B7v160006Ev, symObjAddr: 0x11E8, symBinAddr: 0x100003F0C, symSize: 0x2C }
  - { offsetInCU: 0x11AE3, offset: 0x11AE3, size: 0x8, addend: 0x0, symName: __ZNKSt3__16vectorIiNS_9allocatorIiEEE4sizeB7v160006Ev, symObjAddr: 0x1214, symBinAddr: 0x100003F38, symSize: 0x28 }
  - { offsetInCU: 0x11B08, offset: 0x11B08, size: 0x8, addend: 0x0, symName: __ZN6Sommet10isProchainEi, symObjAddr: 0x123C, symBinAddr: 0x100003F60, symSize: 0xC8 }
  - { offsetInCU: 0x11B8E, offset: 0x11B8E, size: 0x8, addend: 0x0, symName: __ZNSt3__113unordered_setIiNS_4hashIiEENS_8equal_toIiEENS_9allocatorIiEEED1B7v160006Ev, symObjAddr: 0x1304, symBinAddr: 0x100004028, symSize: 0x2C }
  - { offsetInCU: 0x11BB7, offset: 0x11BB7, size: 0x8, addend: 0x0, symName: _main, symObjAddr: 0x1330, symBinAddr: 0x100004054, symSize: 0x394 }
  - { offsetInCU: 0x11CE8, offset: 0x11CE8, size: 0x8, addend: 0x0, symName: __ZNSt3__114basic_ifstreamIcNS_11char_traitsIcEEEC1EPKcj, symObjAddr: 0x16C4, symBinAddr: 0x1000043E8, symSize: 0x16C }
  - { offsetInCU: 0x11D30, offset: 0x11D30, size: 0x8, addend: 0x0, symName: __ZNKSt3__114basic_ifstreamIcNS_11char_traitsIcEEE7is_openEv, symObjAddr: 0x1830, symBinAddr: 0x100004554, symSize: 0x2C }
  - { offsetInCU: 0x11D57, offset: 0x11D57, size: 0x8, addend: 0x0, symName: __ZNSt3__16vectorIP6SommetNS_9allocatorIS2_EEEC1B7v160006Ev, symObjAddr: 0x185C, symBinAddr: 0x100004580, symSize: 0x2C }
  - { offsetInCU: 0x11D80, offset: 0x11D80, size: 0x8, addend: 0x0, symName: __ZNKSt3__16vectorIiNS_9allocatorIiEEE5emptyB7v160006Ev, symObjAddr: 0x18E4, symBinAddr: 0x100004608, symSize: 0x28 }
  - { offsetInCU: 0x11DA5, offset: 0x11DA5, size: 0x8, addend: 0x0, symName: __ZNSt3__16vectorIiNS_9allocatorIiEEEC1ERKS3_, symObjAddr: 0x190C, symBinAddr: 0x100004630, symSize: 0x34 }
  - { offsetInCU: 0x11DDF, offset: 0x11DDF, size: 0x8, addend: 0x0, symName: __ZNKSt3__19basic_iosIcNS_11char_traitsIcEEE3eofB7v160006Ev, symObjAddr: 0x1940, symBinAddr: 0x100004664, symSize: 0x28 }
  - { offsetInCU: 0x11E03, offset: 0x11E03, size: 0x8, addend: 0x0, symName: __ZNSt3__114basic_ifstreamIcNS_11char_traitsIcEEE5closeEv, symObjAddr: 0x1968, symBinAddr: 0x10000468C, symSize: 0x58 }
  - { offsetInCU: 0x11E2A, offset: 0x11E2A, size: 0x8, addend: 0x0, symName: __ZNSt3__16vectorIP6SommetNS_9allocatorIS2_EEED1B7v160006Ev, symObjAddr: 0x19C0, symBinAddr: 0x1000046E4, symSize: 0x2C }
  - { offsetInCU: 0x11E58, offset: 0x11E58, size: 0x8, addend: 0x0, symName: __ZNSt3__114basic_ifstreamIcNS_11char_traitsIcEEED1Ev, symObjAddr: 0x19EC, symBinAddr: 0x100004710, symSize: 0x40 }
  - { offsetInCU: 0x11E84, offset: 0x11E84, size: 0x8, addend: 0x0, symName: __ZNSt3__119basic_istringstreamIcNS_11char_traitsIcEENS_9allocatorIcEEED2Ev, symObjAddr: 0x1A2C, symBinAddr: 0x100004750, symSize: 0x64 }
  - { offsetInCU: 0x11EBC, offset: 0x11EBC, size: 0x8, addend: 0x0, symName: __ZTv0_n24_NSt3__119basic_istringstreamIcNS_11char_traitsIcEENS_9allocatorIcEEED1Ev, symObjAddr: 0x1A90, symBinAddr: 0x1000047B4, symSize: 0x28 }
  - { offsetInCU: 0x11ED8, offset: 0x11ED8, size: 0x8, addend: 0x0, symName: __ZNSt3__115basic_stringbufIcNS_11char_traitsIcEENS_9allocatorIcEEED1Ev, symObjAddr: 0x1AB8, symBinAddr: 0x1000047DC, symSize: 0x2C }
  - { offsetInCU: 0x11F04, offset: 0x11F04, size: 0x8, addend: 0x0, symName: __ZNSt3__115basic_stringbufIcNS_11char_traitsIcEENS_9allocatorIcEEED2Ev, symObjAddr: 0x1AE4, symBinAddr: 0x100004808, symSize: 0x48 }
  - { offsetInCU: 0x11F30, offset: 0x11F30, size: 0x8, addend: 0x0, symName: __ZNKSt3__111__wrap_iterIPP6SommetE4baseB7v160006Ev, symObjAddr: 0x1B74, symBinAddr: 0x100004898, symSize: 0x18 }
  - { offsetInCU: 0x11F55, offset: 0x11F55, size: 0x8, addend: 0x0, symName: __ZN6SommetC2Ei, symObjAddr: 0x1B8C, symBinAddr: 0x1000048B0, symSize: 0x40 }
  - { offsetInCU: 0x11F8C, offset: 0x11F8C, size: 0x8, addend: 0x0, symName: __ZNSt3__111__wrap_iterIPKP6SommetEC2B7v160006IPS2_EERKNS0_IT_EEPNS_9enable_ifIXsr14is_convertibleIS8_S4_EE5valueEvE4typeE, symObjAddr: 0x1BCC, symBinAddr: 0x1000048F0, symSize: 0x40 }
  - { offsetInCU: 0x11FD7, offset: 0x11FD7, size: 0x8, addend: 0x0, symName: __ZNSt3__114basic_ifstreamIcNS_11char_traitsIcEEED2Ev, symObjAddr: 0x1C0C, symBinAddr: 0x100004930, symSize: 0x64 }
  - { offsetInCU: 0x1200F, offset: 0x1200F, size: 0x8, addend: 0x0, symName: __ZTv0_n24_NSt3__114basic_ifstreamIcNS_11char_traitsIcEEED1Ev, symObjAddr: 0x1C70, symBinAddr: 0x100004994, symSize: 0x28 }
  - { offsetInCU: 0x12026, offset: 0x12026, size: 0x8, addend: 0x0, symName: __ZNSt3__112basic_stringIcNS_11char_traitsIcEENS_9allocatorIcEEEC2B7v160006Ev, symObjAddr: 0x1C98, symBinAddr: 0x1000049BC, symSize: 0x54 }
  - { offsetInCU: 0x12054, offset: 0x12054, size: 0x8, addend: 0x0, symName: __ZNSt3__117__compressed_pairINS_12basic_stringIcNS_11char_traitsIcEENS_9allocatorIcEEE5__repES5_EC1B7v160006INS_18__default_init_tagESA_EEOT_OT0_, symObjAddr: 0x1CEC, symBinAddr: 0x100004A10, symSize: 0x3C }
  - { offsetInCU: 0x120AB, offset: 0x120AB, size: 0x8, addend: 0x0, symName: __ZNSt3__112basic_stringIcNS_11char_traitsIcEENS_9allocatorIcEEE14__default_initB7v160006Ev, symObjAddr: 0x1D38, symBinAddr: 0x100004A5C, symSize: 0x40 }
  - { offsetInCU: 0x120D0, offset: 0x120D0, size: 0x8, addend: 0x0, symName: __ZNSt3__117__compressed_pairINS_12basic_stringIcNS_11char_traitsIcEENS_9allocatorIcEEE5__repES5_EC2B7v160006INS_18__default_init_tagESA_EEOT_OT0_, symObjAddr: 0x1D78, symBinAddr: 0x100004A9C, symSize: 0x3C }
  - { offsetInCU: 0x12127, offset: 0x12127, size: 0x8, addend: 0x0, symName: __ZNSt3__122__compressed_pair_elemINS_12basic_stringIcNS_11char_traitsIcEENS_9allocatorIcEEE5__repELi0ELb0EEC2B7v160006ENS_18__default_init_tagE, symObjAddr: 0x1DB4, symBinAddr: 0x100004AD8, symSize: 0x14 }
  - { offsetInCU: 0x1215B, offset: 0x1215B, size: 0x8, addend: 0x0, symName: __ZNSt3__122__compressed_pair_elemINS_9allocatorIcEELi1ELb1EEC2B7v160006ENS_18__default_init_tagE, symObjAddr: 0x1DC8, symBinAddr: 0x100004AEC, symSize: 0x2C }
  - { offsetInCU: 0x1218F, offset: 0x1218F, size: 0x8, addend: 0x0, symName: __ZNSt3__19allocatorIcEC2B7v160006Ev, symObjAddr: 0x1DF4, symBinAddr: 0x100004B18, symSize: 0x2C }
  - { offsetInCU: 0x121B8, offset: 0x121B8, size: 0x8, addend: 0x0, symName: __ZNSt3__116__non_trivial_ifILb1ENS_9allocatorIcEEEC2B7v160006Ev, symObjAddr: 0x1E20, symBinAddr: 0x100004B44, symSize: 0x14 }
  - { offsetInCU: 0x121E1, offset: 0x121E1, size: 0x8, addend: 0x0, symName: __ZNSt3__117__compressed_pairINS_12basic_stringIcNS_11char_traitsIcEENS_9allocatorIcEEE5__repES5_E5firstB7v160006Ev, symObjAddr: 0x1E34, symBinAddr: 0x100004B58, symSize: 0x24 }
  - { offsetInCU: 0x12206, offset: 0x12206, size: 0x8, addend: 0x0, symName: __ZNSt3__122__compressed_pair_elemINS_12basic_stringIcNS_11char_traitsIcEENS_9allocatorIcEEE5__repELi0ELb0EE5__getB7v160006Ev, symObjAddr: 0x1E58, symBinAddr: 0x100004B7C, symSize: 0x14 }
  - { offsetInCU: 0x1222B, offset: 0x1222B, size: 0x8, addend: 0x0, symName: __ZNSt3__16vectorIP6SommetNS_9allocatorIS2_EEEC2B7v160006Ev, symObjAddr: 0x1E6C, symBinAddr: 0x100004B90, symSize: 0x58 }
  - { offsetInCU: 0x12259, offset: 0x12259, size: 0x8, addend: 0x0, symName: __ZNSt3__117__compressed_pairIPP6SommetNS_9allocatorIS2_EEEC1B7v160006IDnNS_18__default_init_tagEEEOT_OT0_, symObjAddr: 0x1EC4, symBinAddr: 0x100004BE8, symSize: 0x3C }
  - { offsetInCU: 0x122B0, offset: 0x122B0, size: 0x8, addend: 0x0, symName: __ZNSt3__117__compressed_pairIPP6SommetNS_9allocatorIS2_EEEC2B7v160006IDnNS_18__default_init_tagEEEOT_OT0_, symObjAddr: 0x1F10, symBinAddr: 0x100004C34, symSize: 0x40 }
  - { offsetInCU: 0x12307, offset: 0x12307, size: 0x8, addend: 0x0, symName: __ZNSt3__122__compressed_pair_elemIPP6SommetLi0ELb0EEC2B7v160006IDnvEEOT_, symObjAddr: 0x1F50, symBinAddr: 0x100004C74, symSize: 0x1C }
  - { offsetInCU: 0x12348, offset: 0x12348, size: 0x8, addend: 0x0, symName: __ZNSt3__122__compressed_pair_elemINS_9allocatorIP6SommetEELi1ELb1EEC2B7v160006ENS_18__default_init_tagE, symObjAddr: 0x1F6C, symBinAddr: 0x100004C90, symSize: 0x2C }
  - { offsetInCU: 0x1237C, offset: 0x1237C, size: 0x8, addend: 0x0, symName: __ZNSt3__19allocatorIP6SommetEC2B7v160006Ev, symObjAddr: 0x1F98, symBinAddr: 0x100004CBC, symSize: 0x2C }
  - { offsetInCU: 0x123A5, offset: 0x123A5, size: 0x8, addend: 0x0, symName: __ZNSt3__116__non_trivial_ifILb1ENS_9allocatorIP6SommetEEEC2B7v160006Ev, symObjAddr: 0x1FC4, symBinAddr: 0x100004CE8, symSize: 0x14 }
  - { offsetInCU: 0x123CE, offset: 0x123CE, size: 0x8, addend: 0x0, symName: __ZNSt3__16vectorIP6SommetNS_9allocatorIS2_EEED2B7v160006Ev, symObjAddr: 0x1FD8, symBinAddr: 0x100004CFC, symSize: 0x44 }
  - { offsetInCU: 0x123F7, offset: 0x123F7, size: 0x8, addend: 0x0, symName: __ZNSt3__16vectorIP6SommetNS_9allocatorIS2_EEE16__destroy_vectorC1ERS5_, symObjAddr: 0x201C, symBinAddr: 0x100004D40, symSize: 0x34 }
  - { offsetInCU: 0x1242F, offset: 0x1242F, size: 0x8, addend: 0x0, symName: __ZNSt3__16vectorIP6SommetNS_9allocatorIS2_EEE16__destroy_vectorclB7v160006Ev, symObjAddr: 0x2050, symBinAddr: 0x100004D74, symSize: 0x9C }
  - { offsetInCU: 0x12454, offset: 0x12454, size: 0x8, addend: 0x0, symName: __ZNSt3__16vectorIP6SommetNS_9allocatorIS2_EEE16__destroy_vectorC2ERS5_, symObjAddr: 0x20EC, symBinAddr: 0x100004E10, symSize: 0x20 }
  - { offsetInCU: 0x1248C, offset: 0x1248C, size: 0x8, addend: 0x0, symName: __ZNKSt3__16vectorIP6SommetNS_9allocatorIS2_EEE17__annotate_deleteB7v160006Ev, symObjAddr: 0x210C, symBinAddr: 0x100004E30, symSize: 0xB8 }
  - { offsetInCU: 0x124B1, offset: 0x124B1, size: 0x8, addend: 0x0, symName: __ZNSt3__16vectorIP6SommetNS_9allocatorIS2_EEE7__clearB7v160006Ev, symObjAddr: 0x21D4, symBinAddr: 0x100004EF8, symSize: 0x28 }
  - { offsetInCU: 0x124D6, offset: 0x124D6, size: 0x8, addend: 0x0, symName: __ZNSt3__116allocator_traitsINS_9allocatorIP6SommetEEE10deallocateB7v160006ERS4_PS3_m, symObjAddr: 0x21FC, symBinAddr: 0x100004F20, symSize: 0x34 }
  - { offsetInCU: 0x12518, offset: 0x12518, size: 0x8, addend: 0x0, symName: __ZNSt3__16vectorIP6SommetNS_9allocatorIS2_EEE7__allocB7v160006Ev, symObjAddr: 0x2230, symBinAddr: 0x100004F54, symSize: 0x28 }
  - { offsetInCU: 0x1253D, offset: 0x1253D, size: 0x8, addend: 0x0, symName: __ZNKSt3__16vectorIP6SommetNS_9allocatorIS2_EEE8capacityB7v160006Ev, symObjAddr: 0x2258, symBinAddr: 0x100004F7C, symSize: 0x40 }
  - { offsetInCU: 0x12562, offset: 0x12562, size: 0x8, addend: 0x0, symName: __ZNKSt3__16vectorIP6SommetNS_9allocatorIS2_EEE31__annotate_contiguous_containerB7v160006EPKvS7_S7_S7_, symObjAddr: 0x2298, symBinAddr: 0x100004FBC, symSize: 0x20 }
  - { offsetInCU: 0x125B3, offset: 0x125B3, size: 0x8, addend: 0x0, symName: __ZNKSt3__16vectorIP6SommetNS_9allocatorIS2_EEE4dataB7v160006Ev, symObjAddr: 0x22B8, symBinAddr: 0x100004FDC, symSize: 0x28 }
  - { offsetInCU: 0x125D8, offset: 0x125D8, size: 0x8, addend: 0x0, symName: __ZNKSt3__16vectorIP6SommetNS_9allocatorIS2_EEE4sizeB7v160006Ev, symObjAddr: 0x22E0, symBinAddr: 0x100005004, symSize: 0x28 }
  - { offsetInCU: 0x125FD, offset: 0x125FD, size: 0x8, addend: 0x0, symName: __ZNSt3__16vectorIP6SommetNS_9allocatorIS2_EEE22__base_destruct_at_endB7v160006EPS2_, symObjAddr: 0x231C, symBinAddr: 0x100005040, symSize: 0x8C }
  - { offsetInCU: 0x12640, offset: 0x12640, size: 0x8, addend: 0x0, symName: __ZNSt3__116allocator_traitsINS_9allocatorIP6SommetEEE7destroyB7v160006IS3_vEEvRS4_PT_, symObjAddr: 0x23A8, symBinAddr: 0x1000050CC, symSize: 0x2C }
  - { offsetInCU: 0x1267D, offset: 0x1267D, size: 0x8, addend: 0x0, symName: __ZNSt3__19allocatorIP6SommetE7destroyB7v160006EPS2_, symObjAddr: 0x23D4, symBinAddr: 0x1000050F8, symSize: 0x14 }
  - { offsetInCU: 0x126B0, offset: 0x126B0, size: 0x8, addend: 0x0, symName: __ZNSt3__19allocatorIP6SommetE10deallocateB7v160006EPS2_m, symObjAddr: 0x23E8, symBinAddr: 0x10000510C, symSize: 0x40 }
  - { offsetInCU: 0x126F1, offset: 0x126F1, size: 0x8, addend: 0x0, symName: __ZNSt3__117__compressed_pairIPP6SommetNS_9allocatorIS2_EEE6secondB7v160006Ev, symObjAddr: 0x24A4, symBinAddr: 0x1000051C8, symSize: 0x24 }
  - { offsetInCU: 0x12716, offset: 0x12716, size: 0x8, addend: 0x0, symName: __ZNSt3__122__compressed_pair_elemINS_9allocatorIP6SommetEELi1ELb1EE5__getB7v160006Ev, symObjAddr: 0x24C8, symBinAddr: 0x1000051EC, symSize: 0x14 }
  - { offsetInCU: 0x1273B, offset: 0x1273B, size: 0x8, addend: 0x0, symName: __ZNKSt3__16vectorIP6SommetNS_9allocatorIS2_EEE9__end_capB7v160006Ev, symObjAddr: 0x24DC, symBinAddr: 0x100005200, symSize: 0x28 }
  - { offsetInCU: 0x12760, offset: 0x12760, size: 0x8, addend: 0x0, symName: __ZNKSt3__117__compressed_pairIPP6SommetNS_9allocatorIS2_EEE5firstB7v160006Ev, symObjAddr: 0x2504, symBinAddr: 0x100005228, symSize: 0x24 }
  - { offsetInCU: 0x12785, offset: 0x12785, size: 0x8, addend: 0x0, symName: __ZNKSt3__122__compressed_pair_elemIPP6SommetLi0ELb0EE5__getB7v160006Ev, symObjAddr: 0x2528, symBinAddr: 0x10000524C, symSize: 0x14 }
  - { offsetInCU: 0x127AA, offset: 0x127AA, size: 0x8, addend: 0x0, symName: __ZNSt3__16vectorIP6SommetNS_9allocatorIS2_EEE11__make_iterB7v160006EPS2_, symObjAddr: 0x253C, symBinAddr: 0x100005260, symSize: 0x34 }
  - { offsetInCU: 0x127DE, offset: 0x127DE, size: 0x8, addend: 0x0, symName: __ZNSt3__111__wrap_iterIPP6SommetEC1B7v160006EPKvS3_, symObjAddr: 0x2570, symBinAddr: 0x100005294, symSize: 0x3C }
  - { offsetInCU: 0x12823, offset: 0x12823, size: 0x8, addend: 0x0, symName: __ZNSt3__111__wrap_iterIPP6SommetEC2B7v160006EPKvS3_, symObjAddr: 0x25AC, symBinAddr: 0x1000052D0, symSize: 0x24 }
  - { offsetInCU: 0x12868, offset: 0x12868, size: 0x8, addend: 0x0, symName: __ZNSt3__19basic_iosIcNS_11char_traitsIcEEEC2B7v160006Ev, symObjAddr: 0x25D0, symBinAddr: 0x1000052F4, symSize: 0x44 }
  - { offsetInCU: 0x12891, offset: 0x12891, size: 0x8, addend: 0x0, symName: __ZNSt3__113basic_istreamIcNS_11char_traitsIcEEEC2B7v160006EPNS_15basic_streambufIcS2_EE, symObjAddr: 0x2614, symBinAddr: 0x100005338, symSize: 0x64 }
  - { offsetInCU: 0x128D4, offset: 0x128D4, size: 0x8, addend: 0x0, symName: __ZNSt3__115basic_stringbufIcNS_11char_traitsIcEENS_9allocatorIcEEEC1B7v160006ERKNS_12basic_stringIcS2_S4_EEj, symObjAddr: 0x2678, symBinAddr: 0x10000539C, symSize: 0x3C }
  - { offsetInCU: 0x12919, offset: 0x12919, size: 0x8, addend: 0x0, symName: __ZNSt3__18ios_baseC2B7v160006Ev, symObjAddr: 0x26B4, symBinAddr: 0x1000053D8, symSize: 0x24 }
  - { offsetInCU: 0x12941, offset: 0x12941, size: 0x8, addend: 0x0, symName: __ZNSt3__19basic_iosIcNS_11char_traitsIcEEE4initB7v160006EPNS_15basic_streambufIcS2_EE, symObjAddr: 0x26D8, symBinAddr: 0x1000053FC, symSize: 0x44 }
  - { offsetInCU: 0x12977, offset: 0x12977, size: 0x8, addend: 0x0, symName: __ZNSt3__111char_traitsIcE3eofEv, symObjAddr: 0x271C, symBinAddr: 0x100005440, symSize: 0x8 }
  - { offsetInCU: 0x1298B, offset: 0x1298B, size: 0x8, addend: 0x0, symName: __ZNSt3__115basic_stringbufIcNS_11char_traitsIcEENS_9allocatorIcEEEC2B7v160006ERKNS_12basic_stringIcS2_S4_EEj, symObjAddr: 0x2724, symBinAddr: 0x100005448, symSize: 0xB4 }
  - { offsetInCU: 0x129D0, offset: 0x129D0, size: 0x8, addend: 0x0, symName: __ZNKSt3__112basic_stringIcNS_11char_traitsIcEENS_9allocatorIcEEE13get_allocatorB7v160006Ev, symObjAddr: 0x27D8, symBinAddr: 0x1000054FC, symSize: 0x24 }
  - { offsetInCU: 0x129F5, offset: 0x129F5, size: 0x8, addend: 0x0, symName: __ZNSt3__112basic_stringIcNS_11char_traitsIcEENS_9allocatorIcEEEC1B7v160006ERKS4_, symObjAddr: 0x27FC, symBinAddr: 0x100005520, symSize: 0x34 }
  - { offsetInCU: 0x12A2D, offset: 0x12A2D, size: 0x8, addend: 0x0, symName: __ZNKSt3__112basic_stringIcNS_11char_traitsIcEENS_9allocatorIcEEE7__allocB7v160006Ev, symObjAddr: 0x2830, symBinAddr: 0x100005554, symSize: 0x24 }
  - { offsetInCU: 0x12A52, offset: 0x12A52, size: 0x8, addend: 0x0, symName: __ZNKSt3__117__compressed_pairINS_12basic_stringIcNS_11char_traitsIcEENS_9allocatorIcEEE5__repES5_E6secondB7v160006Ev, symObjAddr: 0x2854, symBinAddr: 0x100005578, symSize: 0x24 }
  - { offsetInCU: 0x12A77, offset: 0x12A77, size: 0x8, addend: 0x0, symName: __ZNKSt3__122__compressed_pair_elemINS_9allocatorIcEELi1ELb1EE5__getB7v160006Ev, symObjAddr: 0x2878, symBinAddr: 0x10000559C, symSize: 0x14 }
  - { offsetInCU: 0x12A9C, offset: 0x12A9C, size: 0x8, addend: 0x0, symName: __ZNSt3__112basic_stringIcNS_11char_traitsIcEENS_9allocatorIcEEEC2B7v160006ERKS4_, symObjAddr: 0x288C, symBinAddr: 0x1000055B0, symSize: 0x50 }
  - { offsetInCU: 0x12AD4, offset: 0x12AD4, size: 0x8, addend: 0x0, symName: __ZNSt3__117__compressed_pairINS_12basic_stringIcNS_11char_traitsIcEENS_9allocatorIcEEE5__repES5_EC1B7v160006INS_18__default_init_tagERKS5_EEOT_OT0_, symObjAddr: 0x28DC, symBinAddr: 0x100005600, symSize: 0x3C }
  - { offsetInCU: 0x12B2B, offset: 0x12B2B, size: 0x8, addend: 0x0, symName: __ZNSt3__117__compressed_pairINS_12basic_stringIcNS_11char_traitsIcEENS_9allocatorIcEEE5__repES5_EC2B7v160006INS_18__default_init_tagERKS5_EEOT_OT0_, symObjAddr: 0x2918, symBinAddr: 0x10000563C, symSize: 0x40 }
  - { offsetInCU: 0x12B82, offset: 0x12B82, size: 0x8, addend: 0x0, symName: __ZNSt3__122__compressed_pair_elemINS_9allocatorIcEELi1ELb1EEC2B7v160006IRKS2_vEEOT_, symObjAddr: 0x2958, symBinAddr: 0x10000567C, symSize: 0x18 }
  - { offsetInCU: 0x12BC3, offset: 0x12BC3, size: 0x8, addend: 0x0, symName: __ZNSt3__16vectorIiNS_9allocatorIiEEEC2B7v160006Ev, symObjAddr: 0x2970, symBinAddr: 0x100005694, symSize: 0x58 }
  - { offsetInCU: 0x12BEC, offset: 0x12BEC, size: 0x8, addend: 0x0, symName: __ZNSt3__117__compressed_pairIPiNS_9allocatorIiEEEC1B7v160006IDnNS_18__default_init_tagEEEOT_OT0_, symObjAddr: 0x29C8, symBinAddr: 0x1000056EC, symSize: 0x3C }
  - { offsetInCU: 0x12C43, offset: 0x12C43, size: 0x8, addend: 0x0, symName: __ZNSt3__117__compressed_pairIPiNS_9allocatorIiEEEC2B7v160006IDnNS_18__default_init_tagEEEOT_OT0_, symObjAddr: 0x2A14, symBinAddr: 0x100005738, symSize: 0x40 }
  - { offsetInCU: 0x12C9A, offset: 0x12C9A, size: 0x8, addend: 0x0, symName: __ZNSt3__122__compressed_pair_elemIPiLi0ELb0EEC2B7v160006IDnvEEOT_, symObjAddr: 0x2A54, symBinAddr: 0x100005778, symSize: 0x1C }
  - { offsetInCU: 0x12CDB, offset: 0x12CDB, size: 0x8, addend: 0x0, symName: __ZNSt3__122__compressed_pair_elemINS_9allocatorIiEELi1ELb1EEC2B7v160006ENS_18__default_init_tagE, symObjAddr: 0x2A70, symBinAddr: 0x100005794, symSize: 0x2C }
  - { offsetInCU: 0x12D0F, offset: 0x12D0F, size: 0x8, addend: 0x0, symName: __ZNSt3__19allocatorIiEC2B7v160006Ev, symObjAddr: 0x2A9C, symBinAddr: 0x1000057C0, symSize: 0x2C }
  - { offsetInCU: 0x12D38, offset: 0x12D38, size: 0x8, addend: 0x0, symName: __ZNSt3__116__non_trivial_ifILb1ENS_9allocatorIiEEEC2B7v160006Ev, symObjAddr: 0x2AC8, symBinAddr: 0x1000057EC, symSize: 0x14 }
  - { offsetInCU: 0x12D61, offset: 0x12D61, size: 0x8, addend: 0x0, symName: __ZNSt3__16vectorIiNS_9allocatorIiEEED2B7v160006Ev, symObjAddr: 0x2ADC, symBinAddr: 0x100005800, symSize: 0x44 }
  - { offsetInCU: 0x12D8A, offset: 0x12D8A, size: 0x8, addend: 0x0, symName: __ZNSt3__16vectorIiNS_9allocatorIiEEE16__destroy_vectorC1ERS3_, symObjAddr: 0x2B20, symBinAddr: 0x100005844, symSize: 0x34 }
  - { offsetInCU: 0x12DC2, offset: 0x12DC2, size: 0x8, addend: 0x0, symName: __ZNSt3__16vectorIiNS_9allocatorIiEEE16__destroy_vectorclB7v160006Ev, symObjAddr: 0x2B54, symBinAddr: 0x100005878, symSize: 0x9C }
  - { offsetInCU: 0x12DE7, offset: 0x12DE7, size: 0x8, addend: 0x0, symName: __ZNSt3__16vectorIiNS_9allocatorIiEEE16__destroy_vectorC2ERS3_, symObjAddr: 0x2BF0, symBinAddr: 0x100005914, symSize: 0x20 }
  - { offsetInCU: 0x12E1F, offset: 0x12E1F, size: 0x8, addend: 0x0, symName: __ZNKSt3__16vectorIiNS_9allocatorIiEEE17__annotate_deleteB7v160006Ev, symObjAddr: 0x2C10, symBinAddr: 0x100005934, symSize: 0xB8 }
  - { offsetInCU: 0x12E44, offset: 0x12E44, size: 0x8, addend: 0x0, symName: __ZNSt3__16vectorIiNS_9allocatorIiEEE7__clearB7v160006Ev, symObjAddr: 0x2CD8, symBinAddr: 0x1000059FC, symSize: 0x28 }
  - { offsetInCU: 0x12E69, offset: 0x12E69, size: 0x8, addend: 0x0, symName: __ZNSt3__116allocator_traitsINS_9allocatorIiEEE10deallocateB7v160006ERS2_Pim, symObjAddr: 0x2D00, symBinAddr: 0x100005A24, symSize: 0x34 }
  - { offsetInCU: 0x12EAB, offset: 0x12EAB, size: 0x8, addend: 0x0, symName: __ZNSt3__16vectorIiNS_9allocatorIiEEE7__allocB7v160006Ev, symObjAddr: 0x2D34, symBinAddr: 0x100005A58, symSize: 0x28 }
  - { offsetInCU: 0x12ED0, offset: 0x12ED0, size: 0x8, addend: 0x0, symName: __ZNKSt3__16vectorIiNS_9allocatorIiEEE8capacityB7v160006Ev, symObjAddr: 0x2D5C, symBinAddr: 0x100005A80, symSize: 0x40 }
  - { offsetInCU: 0x12EF5, offset: 0x12EF5, size: 0x8, addend: 0x0, symName: __ZNKSt3__16vectorIiNS_9allocatorIiEEE31__annotate_contiguous_containerB7v160006EPKvS5_S5_S5_, symObjAddr: 0x2D9C, symBinAddr: 0x100005AC0, symSize: 0x20 }
  - { offsetInCU: 0x12F46, offset: 0x12F46, size: 0x8, addend: 0x0, symName: __ZNKSt3__16vectorIiNS_9allocatorIiEEE4dataB7v160006Ev, symObjAddr: 0x2DBC, symBinAddr: 0x100005AE0, symSize: 0x28 }
  - { offsetInCU: 0x12F6B, offset: 0x12F6B, size: 0x8, addend: 0x0, symName: __ZNSt3__16vectorIiNS_9allocatorIiEEE22__base_destruct_at_endB7v160006EPi, symObjAddr: 0x2DF8, symBinAddr: 0x100005B1C, symSize: 0x8C }
  - { offsetInCU: 0x12FAE, offset: 0x12FAE, size: 0x8, addend: 0x0, symName: __ZNSt3__116allocator_traitsINS_9allocatorIiEEE7destroyB7v160006IivEEvRS2_PT_, symObjAddr: 0x2E84, symBinAddr: 0x100005BA8, symSize: 0x2C }
  - { offsetInCU: 0x12FEB, offset: 0x12FEB, size: 0x8, addend: 0x0, symName: __ZNSt3__19allocatorIiE7destroyB7v160006EPi, symObjAddr: 0x2EB0, symBinAddr: 0x100005BD4, symSize: 0x14 }
  - { offsetInCU: 0x1301E, offset: 0x1301E, size: 0x8, addend: 0x0, symName: __ZNSt3__19allocatorIiE10deallocateB7v160006EPim, symObjAddr: 0x2EC4, symBinAddr: 0x100005BE8, symSize: 0x40 }
  - { offsetInCU: 0x1305F, offset: 0x1305F, size: 0x8, addend: 0x0, symName: __ZNSt3__117__compressed_pairIPiNS_9allocatorIiEEE6secondB7v160006Ev, symObjAddr: 0x2F04, symBinAddr: 0x100005C28, symSize: 0x24 }
  - { offsetInCU: 0x13084, offset: 0x13084, size: 0x8, addend: 0x0, symName: __ZNSt3__122__compressed_pair_elemINS_9allocatorIiEELi1ELb1EE5__getB7v160006Ev, symObjAddr: 0x2F28, symBinAddr: 0x100005C4C, symSize: 0x14 }
  - { offsetInCU: 0x130A9, offset: 0x130A9, size: 0x8, addend: 0x0, symName: __ZNKSt3__16vectorIiNS_9allocatorIiEEE9__end_capB7v160006Ev, symObjAddr: 0x2F3C, symBinAddr: 0x100005C60, symSize: 0x28 }
  - { offsetInCU: 0x130CE, offset: 0x130CE, size: 0x8, addend: 0x0, symName: __ZNKSt3__117__compressed_pairIPiNS_9allocatorIiEEE5firstB7v160006Ev, symObjAddr: 0x2F64, symBinAddr: 0x100005C88, symSize: 0x24 }
  - { offsetInCU: 0x130F3, offset: 0x130F3, size: 0x8, addend: 0x0, symName: __ZNKSt3__122__compressed_pair_elemIPiLi0ELb0EE5__getB7v160006Ev, symObjAddr: 0x2F88, symBinAddr: 0x100005CAC, symSize: 0x14 }
  - { offsetInCU: 0x13136, offset: 0x13136, size: 0x8, addend: 0x0, symName: __ZNKSt3__113basic_istreamIcNS_11char_traitsIcEEE6sentrycvbB7v160006Ev, symObjAddr: 0x2F9C, symBinAddr: 0x100005CC0, symSize: 0x1C }
  - { offsetInCU: 0x1315A, offset: 0x1315A, size: 0x8, addend: 0x0, symName: __ZNSt3__112basic_stringIcNS_11char_traitsIcEENS_9allocatorIcEEE5clearB7v160006Ev, symObjAddr: 0x2FB8, symBinAddr: 0x100005CDC, symSize: 0x88 }
  - { offsetInCU: 0x13180, offset: 0x13180, size: 0x8, addend: 0x0, symName: __ZNKSt3__19basic_iosIcNS_11char_traitsIcEEE5rdbufB7v160006Ev, symObjAddr: 0x3040, symBinAddr: 0x100005D64, symSize: 0x24 }
  - { offsetInCU: 0x131A7, offset: 0x131A7, size: 0x8, addend: 0x0, symName: __ZNSt3__115basic_streambufIcNS_11char_traitsIcEEE6sbumpcB7v160006Ev, symObjAddr: 0x3064, symBinAddr: 0x100005D88, symSize: 0x78 }
  - { offsetInCU: 0x131CC, offset: 0x131CC, size: 0x8, addend: 0x0, symName: __ZNSt3__111char_traitsIcE11eq_int_typeEii, symObjAddr: 0x30DC, symBinAddr: 0x100005E00, symSize: 0x28 }
  - { offsetInCU: 0x131FD, offset: 0x131FD, size: 0x8, addend: 0x0, symName: __ZNSt3__111char_traitsIcE12to_char_typeEi, symObjAddr: 0x3104, symBinAddr: 0x100005E28, symSize: 0x18 }
  - { offsetInCU: 0x13220, offset: 0x13220, size: 0x8, addend: 0x0, symName: __ZNSt3__111char_traitsIcE2eqEcc, symObjAddr: 0x311C, symBinAddr: 0x100005E40, symSize: 0x28 }
  - { offsetInCU: 0x13251, offset: 0x13251, size: 0x8, addend: 0x0, symName: __ZNKSt3__112basic_stringIcNS_11char_traitsIcEENS_9allocatorIcEEE4sizeB7v160006Ev, symObjAddr: 0x3144, symBinAddr: 0x100005E68, symSize: 0x54 }
  - { offsetInCU: 0x13276, offset: 0x13276, size: 0x8, addend: 0x0, symName: __ZNKSt3__112basic_stringIcNS_11char_traitsIcEENS_9allocatorIcEEE8max_sizeB7v160006Ev, symObjAddr: 0x3198, symBinAddr: 0x100005EBC, symSize: 0xAC }
  - { offsetInCU: 0x132C8, offset: 0x132C8, size: 0x8, addend: 0x0, symName: __ZNSt3__18ios_base18__setstate_nothrowB7v160006Ej, symObjAddr: 0x3244, symBinAddr: 0x100005F68, symSize: 0x64 }
  - { offsetInCU: 0x132FC, offset: 0x132FC, size: 0x8, addend: 0x0, symName: __ZNKSt3__19basic_iosIcNS_11char_traitsIcEEE10exceptionsB7v160006Ev, symObjAddr: 0x32A8, symBinAddr: 0x100005FCC, symSize: 0x24 }
  - { offsetInCU: 0x13321, offset: 0x13321, size: 0x8, addend: 0x0, symName: __ZNSt3__19basic_iosIcNS_11char_traitsIcEEE8setstateB7v160006Ej, symObjAddr: 0x32CC, symBinAddr: 0x100005FF0, symSize: 0x2C }
  - { offsetInCU: 0x13355, offset: 0x13355, size: 0x8, addend: 0x0, symName: __ZNKSt3__112basic_stringIcNS_11char_traitsIcEENS_9allocatorIcEEE9__is_longB7v160006Ev, symObjAddr: 0x3308, symBinAddr: 0x10000602C, symSize: 0x38 }
  - { offsetInCU: 0x1337A, offset: 0x1337A, size: 0x8, addend: 0x0, symName: __ZNSt3__111char_traitsIcE6assignERcRKc, symObjAddr: 0x3340, symBinAddr: 0x100006064, symSize: 0x24 }
  - { offsetInCU: 0x133AB, offset: 0x133AB, size: 0x8, addend: 0x0, symName: __ZNSt3__112basic_stringIcNS_11char_traitsIcEENS_9allocatorIcEEE18__get_long_pointerB7v160006Ev, symObjAddr: 0x3364, symBinAddr: 0x100006088, symSize: 0x28 }
  - { offsetInCU: 0x133D0, offset: 0x133D0, size: 0x8, addend: 0x0, symName: __ZNSt3__112basic_stringIcNS_11char_traitsIcEENS_9allocatorIcEEE15__set_long_sizeB7v160006Em, symObjAddr: 0x338C, symBinAddr: 0x1000060B0, symSize: 0x38 }
  - { offsetInCU: 0x13404, offset: 0x13404, size: 0x8, addend: 0x0, symName: __ZNSt3__112basic_stringIcNS_11char_traitsIcEENS_9allocatorIcEEE19__get_short_pointerB7v160006Ev, symObjAddr: 0x33C4, symBinAddr: 0x1000060E8, symSize: 0x28 }
  - { offsetInCU: 0x13429, offset: 0x13429, size: 0x8, addend: 0x0, symName: __ZNSt3__112basic_stringIcNS_11char_traitsIcEENS_9allocatorIcEEE16__set_short_sizeB7v160006Em, symObjAddr: 0x33EC, symBinAddr: 0x100006110, symSize: 0x78 }
  - { offsetInCU: 0x1345D, offset: 0x1345D, size: 0x8, addend: 0x0, symName: __ZNKSt3__117__compressed_pairINS_12basic_stringIcNS_11char_traitsIcEENS_9allocatorIcEEE5__repES5_E5firstB7v160006Ev, symObjAddr: 0x3464, symBinAddr: 0x100006188, symSize: 0x24 }
  - { offsetInCU: 0x13482, offset: 0x13482, size: 0x8, addend: 0x0, symName: __ZNKSt3__122__compressed_pair_elemINS_12basic_stringIcNS_11char_traitsIcEENS_9allocatorIcEEE5__repELi0ELb0EE5__getB7v160006Ev, symObjAddr: 0x3488, symBinAddr: 0x1000061AC, symSize: 0x14 }
  - { offsetInCU: 0x134A7, offset: 0x134A7, size: 0x8, addend: 0x0, symName: __ZNSt3__114pointer_traitsIPcE10pointer_toB7v160006ERc, symObjAddr: 0x349C, symBinAddr: 0x1000061C0, symSize: 0x14 }
  - { offsetInCU: 0x134CA, offset: 0x134CA, size: 0x8, addend: 0x0, symName: __ZNKSt3__18ios_base5rdbufB7v160006Ev, symObjAddr: 0x34B0, symBinAddr: 0x1000061D4, symSize: 0x18 }
  - { offsetInCU: 0x134EF, offset: 0x134EF, size: 0x8, addend: 0x0, symName: __ZNSt3__111char_traitsIcE11to_int_typeEc, symObjAddr: 0x34C8, symBinAddr: 0x1000061EC, symSize: 0x14 }
  - { offsetInCU: 0x13512, offset: 0x13512, size: 0x8, addend: 0x0, symName: __ZNKSt3__112basic_stringIcNS_11char_traitsIcEENS_9allocatorIcEEE15__get_long_sizeB7v160006Ev, symObjAddr: 0x34DC, symBinAddr: 0x100006200, symSize: 0x28 }
  - { offsetInCU: 0x13537, offset: 0x13537, size: 0x8, addend: 0x0, symName: __ZNKSt3__112basic_stringIcNS_11char_traitsIcEENS_9allocatorIcEEE16__get_short_sizeB7v160006Ev, symObjAddr: 0x3504, symBinAddr: 0x100006228, symSize: 0x34 }
  - { offsetInCU: 0x13566, offset: 0x13566, size: 0x8, addend: 0x0, symName: __ZNSt3__116allocator_traitsINS_9allocatorIcEEE8max_sizeB7v160006IS2_vEEmRKS2_, symObjAddr: 0x3538, symBinAddr: 0x10000625C, symSize: 0x24 }
  - { offsetInCU: 0x13594, offset: 0x13594, size: 0x8, addend: 0x0, symName: __ZNSt3__114numeric_limitsImE3maxB7v160006Ev, symObjAddr: 0x355C, symBinAddr: 0x100006280, symSize: 0x14 }
  - { offsetInCU: 0x135A8, offset: 0x135A8, size: 0x8, addend: 0x0, symName: __ZNKSt3__19allocatorIcE8max_sizeB7v160006Ev, symObjAddr: 0x3570, symBinAddr: 0x100006294, symSize: 0x14 }
  - { offsetInCU: 0x135CD, offset: 0x135CD, size: 0x8, addend: 0x0, symName: __ZNSt3__123__libcpp_numeric_limitsImLb1EE3maxB7v160006Ev, symObjAddr: 0x3584, symBinAddr: 0x1000062A8, symSize: 0x8 }
  - { offsetInCU: 0x135E1, offset: 0x135E1, size: 0x8, addend: 0x0, symName: __ZNKSt3__18ios_base10exceptionsB7v160006Ev, symObjAddr: 0x358C, symBinAddr: 0x1000062B0, symSize: 0x18 }
  - { offsetInCU: 0x13607, offset: 0x13607, size: 0x8, addend: 0x0, symName: __ZNSt3__18ios_base8setstateB7v160006Ej, symObjAddr: 0x35A4, symBinAddr: 0x1000062C8, symSize: 0x34 }
  - { offsetInCU: 0x1363D, offset: 0x1363D, size: 0x8, addend: 0x0, symName: __ZNKSt3__19basic_iosIcNS_11char_traitsIcEEE4failB7v160006Ev, symObjAddr: 0x35D8, symBinAddr: 0x1000062FC, symSize: 0x28 }
  - { offsetInCU: 0x13662, offset: 0x13662, size: 0x8, addend: 0x0, symName: __ZNKSt3__18ios_base4failB7v160006Ev, symObjAddr: 0x3600, symBinAddr: 0x100006324, symSize: 0x28 }
  - { offsetInCU: 0x13689, offset: 0x13689, size: 0x8, addend: 0x0, symName: __ZNSt3__16vectorIiNS_9allocatorIiEEE9__end_capB7v160006Ev, symObjAddr: 0x3628, symBinAddr: 0x10000634C, symSize: 0x28 }
  - { offsetInCU: 0x136B3, offset: 0x136B3, size: 0x8, addend: 0x0, symName: __ZNSt3__16vectorIiNS_9allocatorIiEEE22__construct_one_at_endB7v160006IJiEEEvDpOT_, symObjAddr: 0x3650, symBinAddr: 0x100006374, symSize: 0x90 }
  - { offsetInCU: 0x13700, offset: 0x13700, size: 0x8, addend: 0x0, symName: __ZNSt3__16vectorIiNS_9allocatorIiEEE21__push_back_slow_pathIiEEvOT_, symObjAddr: 0x36E0, symBinAddr: 0x100006404, symSize: 0xD8 }
  - { offsetInCU: 0x1375D, offset: 0x1375D, size: 0x8, addend: 0x0, symName: __ZNSt3__117__compressed_pairIPiNS_9allocatorIiEEE5firstB7v160006Ev, symObjAddr: 0x37B8, symBinAddr: 0x1000064DC, symSize: 0x24 }
  - { offsetInCU: 0x13782, offset: 0x13782, size: 0x8, addend: 0x0, symName: __ZNSt3__122__compressed_pair_elemIPiLi0ELb0EE5__getB7v160006Ev, symObjAddr: 0x37DC, symBinAddr: 0x100006500, symSize: 0x14 }
  - { offsetInCU: 0x137C0, offset: 0x137C0, size: 0x8, addend: 0x0, symName: __ZNSt3__16vectorIiNS_9allocatorIiEEE21_ConstructTransactionC1B7v160006ERS3_m, symObjAddr: 0x37F0, symBinAddr: 0x100006514, symSize: 0x3C }
  - { offsetInCU: 0x13807, offset: 0x13807, size: 0x8, addend: 0x0, symName: __ZNSt3__116allocator_traitsINS_9allocatorIiEEE9constructB7v160006IiJiEvEEvRS2_PT_DpOT0_, symObjAddr: 0x382C, symBinAddr: 0x100006550, symSize: 0x34 }
  - { offsetInCU: 0x1385E, offset: 0x1385E, size: 0x8, addend: 0x0, symName: __ZNSt3__16vectorIiNS_9allocatorIiEEE21_ConstructTransactionD1B7v160006Ev, symObjAddr: 0x3860, symBinAddr: 0x100006584, symSize: 0x2C }
  - { offsetInCU: 0x13887, offset: 0x13887, size: 0x8, addend: 0x0, symName: __ZNSt3__16vectorIiNS_9allocatorIiEEE21_ConstructTransactionC2B7v160006ERS3_m, symObjAddr: 0x388C, symBinAddr: 0x1000065B0, symSize: 0x44 }
  - { offsetInCU: 0x138CE, offset: 0x138CE, size: 0x8, addend: 0x0, symName: __ZNSt3__19allocatorIiE9constructB7v160006IiJiEEEvPT_DpOT0_, symObjAddr: 0x38D0, symBinAddr: 0x1000065F4, symSize: 0x28 }
  - { offsetInCU: 0x13923, offset: 0x13923, size: 0x8, addend: 0x0, symName: __ZNSt3__16vectorIiNS_9allocatorIiEEE21_ConstructTransactionD2B7v160006Ev, symObjAddr: 0x38F8, symBinAddr: 0x10000661C, symSize: 0x20 }
  - { offsetInCU: 0x1394B, offset: 0x1394B, size: 0x8, addend: 0x0, symName: __ZNKSt3__16vectorIiNS_9allocatorIiEEE11__recommendB7v160006Em, symObjAddr: 0x3918, symBinAddr: 0x10000663C, symSize: 0xB4 }
  - { offsetInCU: 0x1399F, offset: 0x1399F, size: 0x8, addend: 0x0, symName: __ZNSt3__114__split_bufferIiRNS_9allocatorIiEEEC1EmmS3_, symObjAddr: 0x39CC, symBinAddr: 0x1000066F0, symSize: 0x44 }
  - { offsetInCU: 0x139F4, offset: 0x139F4, size: 0x8, addend: 0x0, symName: __ZNSt3__114__split_bufferIiRNS_9allocatorIiEEED1Ev, symObjAddr: 0x3B28, symBinAddr: 0x10000684C, symSize: 0x2C }
  - { offsetInCU: 0x13A1E, offset: 0x13A1E, size: 0x8, addend: 0x0, symName: __ZNKSt3__16vectorIiNS_9allocatorIiEEE8max_sizeEv, symObjAddr: 0x3B54, symBinAddr: 0x100006878, symSize: 0x60 }
  - { offsetInCU: 0x13A45, offset: 0x13A45, size: 0x8, addend: 0x0, symName: __ZNKSt3__16vectorIiNS_9allocatorIiEEE20__throw_length_errorB7v160006Ev, symObjAddr: 0x3BB4, symBinAddr: 0x1000068D8, symSize: 0x1C }
  - { offsetInCU: 0x13A74, offset: 0x13A74, size: 0x8, addend: 0x0, symName: __ZNSt3__116allocator_traitsINS_9allocatorIiEEE8max_sizeB7v160006IS2_vEEmRKS2_, symObjAddr: 0x3C28, symBinAddr: 0x10000694C, symSize: 0x24 }
  - { offsetInCU: 0x13AA2, offset: 0x13AA2, size: 0x8, addend: 0x0, symName: __ZNKSt3__16vectorIiNS_9allocatorIiEEE7__allocB7v160006Ev, symObjAddr: 0x3C4C, symBinAddr: 0x100006970, symSize: 0x28 }
  - { offsetInCU: 0x13AC7, offset: 0x13AC7, size: 0x8, addend: 0x0, symName: __ZNSt3__114numeric_limitsIlE3maxB7v160006Ev, symObjAddr: 0x3C74, symBinAddr: 0x100006998, symSize: 0x14 }
  - { offsetInCU: 0x13AE5, offset: 0x13AE5, size: 0x8, addend: 0x0, symName: __ZNKSt3__16__lessImmEclB7v160006ERKmS3_, symObjAddr: 0x3CDC, symBinAddr: 0x100006A00, symSize: 0x34 }
  - { offsetInCU: 0x13B26, offset: 0x13B26, size: 0x8, addend: 0x0, symName: __ZNKSt3__19allocatorIiE8max_sizeB7v160006Ev, symObjAddr: 0x3D10, symBinAddr: 0x100006A34, symSize: 0x14 }
  - { offsetInCU: 0x13B4B, offset: 0x13B4B, size: 0x8, addend: 0x0, symName: __ZNKSt3__117__compressed_pairIPiNS_9allocatorIiEEE6secondB7v160006Ev, symObjAddr: 0x3D24, symBinAddr: 0x100006A48, symSize: 0x24 }
  - { offsetInCU: 0x13B70, offset: 0x13B70, size: 0x8, addend: 0x0, symName: __ZNKSt3__122__compressed_pair_elemINS_9allocatorIiEELi1ELb1EE5__getB7v160006Ev, symObjAddr: 0x3D48, symBinAddr: 0x100006A6C, symSize: 0x14 }
  - { offsetInCU: 0x13B95, offset: 0x13B95, size: 0x8, addend: 0x0, symName: __ZNSt3__123__libcpp_numeric_limitsIlLb1EE3maxB7v160006Ev, symObjAddr: 0x3D5C, symBinAddr: 0x100006A80, symSize: 0x8 }
  - { offsetInCU: 0x13BA9, offset: 0x13BA9, size: 0x8, addend: 0x0, symName: __ZNSt12length_errorC1B7v160006EPKc, symObjAddr: 0x3DC8, symBinAddr: 0x100006AEC, symSize: 0x34 }
  - { offsetInCU: 0x13BE0, offset: 0x13BE0, size: 0x8, addend: 0x0, symName: __ZNSt12length_errorC2B7v160006EPKc, symObjAddr: 0x3DFC, symBinAddr: 0x100006B20, symSize: 0x4C }
  - { offsetInCU: 0x13C17, offset: 0x13C17, size: 0x8, addend: 0x0, symName: __ZNSt3__114__split_bufferIiRNS_9allocatorIiEEEC2EmmS3_, symObjAddr: 0x3E9C, symBinAddr: 0x100006BC0, symSize: 0xD4 }
  - { offsetInCU: 0x13C8A, offset: 0x13C8A, size: 0x8, addend: 0x0, symName: __ZNSt3__117__compressed_pairIPiRNS_9allocatorIiEEEC1B7v160006IDnS4_EEOT_OT0_, symObjAddr: 0x3F70, symBinAddr: 0x100006C94, symSize: 0x3C }
  - { offsetInCU: 0x13CE1, offset: 0x13CE1, size: 0x8, addend: 0x0, symName: __ZNSt3__114__split_bufferIiRNS_9allocatorIiEEE7__allocB7v160006Ev, symObjAddr: 0x3FEC, symBinAddr: 0x100006D10, symSize: 0x28 }
  - { offsetInCU: 0x13D06, offset: 0x13D06, size: 0x8, addend: 0x0, symName: __ZNSt3__114__split_bufferIiRNS_9allocatorIiEEE9__end_capB7v160006Ev, symObjAddr: 0x4014, symBinAddr: 0x100006D38, symSize: 0x28 }
  - { offsetInCU: 0x13D2B, offset: 0x13D2B, size: 0x8, addend: 0x0, symName: __ZNSt3__117__compressed_pairIPiRNS_9allocatorIiEEEC2B7v160006IDnS4_EEOT_OT0_, symObjAddr: 0x403C, symBinAddr: 0x100006D60, symSize: 0x48 }
  - { offsetInCU: 0x13D82, offset: 0x13D82, size: 0x8, addend: 0x0, symName: __ZNSt3__122__compressed_pair_elemIRNS_9allocatorIiEELi1ELb0EEC2B7v160006IS3_vEEOT_, symObjAddr: 0x4084, symBinAddr: 0x100006DA8, symSize: 0x20 }
  - { offsetInCU: 0x13DC3, offset: 0x13DC3, size: 0x8, addend: 0x0, symName: __ZNSt3__19allocatorIiE8allocateB7v160006Em, symObjAddr: 0x40A4, symBinAddr: 0x100006DC8, symSize: 0x58 }
  - { offsetInCU: 0x13DF6, offset: 0x13DF6, size: 0x8, addend: 0x0, symName: __ZNSt3__117__compressed_pairIPiRNS_9allocatorIiEEE6secondB7v160006Ev, symObjAddr: 0x417C, symBinAddr: 0x100006EA0, symSize: 0x28 }
  - { offsetInCU: 0x13E1B, offset: 0x13E1B, size: 0x8, addend: 0x0, symName: __ZNSt3__122__compressed_pair_elemIRNS_9allocatorIiEELi1ELb0EE5__getB7v160006Ev, symObjAddr: 0x41A4, symBinAddr: 0x100006EC8, symSize: 0x18 }
  - { offsetInCU: 0x13E40, offset: 0x13E40, size: 0x8, addend: 0x0, symName: __ZNSt3__117__compressed_pairIPiRNS_9allocatorIiEEE5firstB7v160006Ev, symObjAddr: 0x41BC, symBinAddr: 0x100006EE0, symSize: 0x24 }
  - { offsetInCU: 0x13E65, offset: 0x13E65, size: 0x8, addend: 0x0, symName: __ZNSt3__116reverse_iteratorIPiEC1B7v160006ES1_, symObjAddr: 0x4258, symBinAddr: 0x100006F7C, symSize: 0x34 }
  - { offsetInCU: 0x13E9C, offset: 0x13E9C, size: 0x8, addend: 0x0, symName: __ZNKSt3__116reverse_iteratorIPiE4baseB7v160006Ev, symObjAddr: 0x428C, symBinAddr: 0x100006FB0, symSize: 0x18 }
  - { offsetInCU: 0x13EC1, offset: 0x13EC1, size: 0x8, addend: 0x0, symName: __ZNKSt3__16vectorIiNS_9allocatorIiEEE14__annotate_newB7v160006Em, symObjAddr: 0x42E0, symBinAddr: 0x100007004, symSize: 0xAC }
  - { offsetInCU: 0x13F18, offset: 0x13F18, size: 0x8, addend: 0x0, symName: __ZNKSt3__111__move_loopINS_17_ClassicAlgPolicyEEclB7v160006INS_16reverse_iteratorIPiEES6_S6_EENS_4pairIT_T1_EES8_T0_S9_, symObjAddr: 0x468C, symBinAddr: 0x1000073B0, symSize: 0xA0 }
  - { offsetInCU: 0x13F82, offset: 0x13F82, size: 0x8, addend: 0x0, symName: __ZNSt3__18_IterOpsINS_17_ClassicAlgPolicyEE11__iter_moveB7v160006IRNS_16reverse_iteratorIPiEEEENS_9enable_ifIXsr12is_referenceIDTdeclsr3stdE7declvalIRT_EEEEE5valueEDTclsr3stdE4movedeclsr3stdE7declvalISA_EEEEE4typeEOS9_, symObjAddr: 0x48C0, symBinAddr: 0x1000075E4, symSize: 0x28 }
  - { offsetInCU: 0x13FAE, offset: 0x13FAE, size: 0x8, addend: 0x0, symName: __ZNKSt3__116reverse_iteratorIPiEdeB7v160006Ev, symObjAddr: 0x48E8, symBinAddr: 0x10000760C, symSize: 0x28 }
  - { offsetInCU: 0x13FE1, offset: 0x13FE1, size: 0x8, addend: 0x0, symName: __ZNSt3__116reverse_iteratorIPiEppB7v160006Ev, symObjAddr: 0x4910, symBinAddr: 0x100007634, symSize: 0x20 }
  - { offsetInCU: 0x14006, offset: 0x14006, size: 0x8, addend: 0x0, symName: __ZNSt3__18_IterOpsINS_17_ClassicAlgPolicyEE25__validate_iter_referenceB7v160006IRNS_16reverse_iteratorIPiEEEEvv, symObjAddr: 0x4930, symBinAddr: 0x100007654, symSize: 0x4 }
  - { offsetInCU: 0x14024, offset: 0x14024, size: 0x8, addend: 0x0, symName: __ZNSt3__118__unwrap_iter_implINS_16reverse_iteratorIPiEELb0EE8__unwrapB7v160006ES3_, symObjAddr: 0x4934, symBinAddr: 0x100007658, symSize: 0x24 }
  - { offsetInCU: 0x1404C, offset: 0x1404C, size: 0x8, addend: 0x0, symName: __ZNSt3__14pairINS_16reverse_iteratorIPiEES3_EC1B7v160006IS3_S3_LPv0EEEOT_OT0_, symObjAddr: 0x4958, symBinAddr: 0x10000767C, symSize: 0x3C }
  - { offsetInCU: 0x140A9, offset: 0x140A9, size: 0x8, addend: 0x0, symName: __ZNSt3__14pairINS_16reverse_iteratorIPiEES3_EC2B7v160006IS3_S3_LPv0EEEOT_OT0_, symObjAddr: 0x4994, symBinAddr: 0x1000076B8, symSize: 0x34 }
  - { offsetInCU: 0x14106, offset: 0x14106, size: 0x8, addend: 0x0, symName: __ZNSt3__118__unwrap_iter_implINS_16reverse_iteratorIPiEELb0EE8__rewrapB7v160006ES3_S3_, symObjAddr: 0x49C8, symBinAddr: 0x1000076EC, symSize: 0x2C }
  - { offsetInCU: 0x14134, offset: 0x14134, size: 0x8, addend: 0x0, symName: __ZNSt3__116reverse_iteratorIPiEC2B7v160006ES1_, symObjAddr: 0x49F4, symBinAddr: 0x100007718, symSize: 0x28 }
  - { offsetInCU: 0x1416B, offset: 0x1416B, size: 0x8, addend: 0x0, symName: __ZNSt3__114__split_bufferIiRNS_9allocatorIiEEED2Ev, symObjAddr: 0x4A1C, symBinAddr: 0x100007740, symSize: 0x8C }
  - { offsetInCU: 0x14196, offset: 0x14196, size: 0x8, addend: 0x0, symName: __ZNSt3__114__split_bufferIiRNS_9allocatorIiEEE5clearB7v160006Ev, symObjAddr: 0x4AA8, symBinAddr: 0x1000077CC, symSize: 0x28 }
  - { offsetInCU: 0x141BB, offset: 0x141BB, size: 0x8, addend: 0x0, symName: __ZNKSt3__114__split_bufferIiRNS_9allocatorIiEEE8capacityB7v160006Ev, symObjAddr: 0x4AD0, symBinAddr: 0x1000077F4, symSize: 0x40 }
  - { offsetInCU: 0x141E0, offset: 0x141E0, size: 0x8, addend: 0x0, symName: __ZNSt3__114__split_bufferIiRNS_9allocatorIiEEE17__destruct_at_endB7v160006EPi, symObjAddr: 0x4B10, symBinAddr: 0x100007834, symSize: 0x2C }
  - { offsetInCU: 0x14212, offset: 0x14212, size: 0x8, addend: 0x0, symName: __ZNSt3__114__split_bufferIiRNS_9allocatorIiEEE17__destruct_at_endB7v160006EPiNS_17integral_constantIbLb0EEE, symObjAddr: 0x4B3C, symBinAddr: 0x100007860, symSize: 0x80 }
  - { offsetInCU: 0x14252, offset: 0x14252, size: 0x8, addend: 0x0, symName: __ZNKSt3__114__split_bufferIiRNS_9allocatorIiEEE9__end_capB7v160006Ev, symObjAddr: 0x4BBC, symBinAddr: 0x1000078E0, symSize: 0x28 }
  - { offsetInCU: 0x14277, offset: 0x14277, size: 0x8, addend: 0x0, symName: __ZNKSt3__117__compressed_pairIPiRNS_9allocatorIiEEE5firstB7v160006Ev, symObjAddr: 0x4BE4, symBinAddr: 0x100007908, symSize: 0x24 }
  - { offsetInCU: 0x1429C, offset: 0x1429C, size: 0x8, addend: 0x0, symName: __ZNSt3__111char_traitsIcE6lengthEPKc, symObjAddr: 0x4DF4, symBinAddr: 0x100007B18, symSize: 0x34 }
  - { offsetInCU: 0x142DD, offset: 0x142DD, size: 0x8, addend: 0x0, symName: __ZNKSt3__113basic_ostreamIcNS_11char_traitsIcEEE6sentrycvbB7v160006Ev, symObjAddr: 0x4E28, symBinAddr: 0x100007B4C, symSize: 0x1C }
  - { offsetInCU: 0x14302, offset: 0x14302, size: 0x8, addend: 0x0, symName: __ZNSt3__119ostreambuf_iteratorIcNS_11char_traitsIcEEEC1B7v160006ERNS_13basic_ostreamIcS2_EE, symObjAddr: 0x5084, symBinAddr: 0x100007DA8, symSize: 0x34 }
  - { offsetInCU: 0x14339, offset: 0x14339, size: 0x8, addend: 0x0, symName: __ZNKSt3__18ios_base5flagsB7v160006Ev, symObjAddr: 0x50B8, symBinAddr: 0x100007DDC, symSize: 0x18 }
  - { offsetInCU: 0x1435F, offset: 0x1435F, size: 0x8, addend: 0x0, symName: __ZNKSt3__19basic_iosIcNS_11char_traitsIcEEE4fillB7v160006Ev, symObjAddr: 0x50D0, symBinAddr: 0x100007DF4, symSize: 0x64 }
  - { offsetInCU: 0x14386, offset: 0x14386, size: 0x8, addend: 0x0, symName: __ZNKSt3__119ostreambuf_iteratorIcNS_11char_traitsIcEEE6failedB7v160006Ev, symObjAddr: 0x5134, symBinAddr: 0x100007E58, symSize: 0x24 }
  - { offsetInCU: 0x143AB, offset: 0x143AB, size: 0x8, addend: 0x0, symName: __ZNKSt3__18ios_base5widthB7v160006Ev, symObjAddr: 0x5158, symBinAddr: 0x100007E7C, symSize: 0x18 }
  - { offsetInCU: 0x143D2, offset: 0x143D2, size: 0x8, addend: 0x0, symName: __ZNSt3__115basic_streambufIcNS_11char_traitsIcEEE5sputnB7v160006EPKcl, symObjAddr: 0x5170, symBinAddr: 0x100007E94, symSize: 0x3C }
  - { offsetInCU: 0x14413, offset: 0x14413, size: 0x8, addend: 0x0, symName: __ZNSt3__112basic_stringIcNS_11char_traitsIcEENS_9allocatorIcEEEC1B7v160006Emc, symObjAddr: 0x51AC, symBinAddr: 0x100007ED0, symSize: 0x3C }
  - { offsetInCU: 0x1445A, offset: 0x1445A, size: 0x8, addend: 0x0, symName: __ZNKSt3__112basic_stringIcNS_11char_traitsIcEENS_9allocatorIcEEE4dataB7v160006Ev, symObjAddr: 0x51E8, symBinAddr: 0x100007F0C, symSize: 0x28 }
  - { offsetInCU: 0x1447F, offset: 0x1447F, size: 0x8, addend: 0x0, symName: __ZNSt3__18ios_base5widthB7v160006El, symObjAddr: 0x5210, symBinAddr: 0x100007F34, symSize: 0x2C }
  - { offsetInCU: 0x144C4, offset: 0x144C4, size: 0x8, addend: 0x0, symName: __ZNSt3__112basic_stringIcNS_11char_traitsIcEENS_9allocatorIcEEEC2B7v160006Emc, symObjAddr: 0x523C, symBinAddr: 0x100007F60, symSize: 0x54 }
  - { offsetInCU: 0x1450B, offset: 0x1450B, size: 0x8, addend: 0x0, symName: __ZNKSt3__112basic_stringIcNS_11char_traitsIcEENS_9allocatorIcEEE13__get_pointerB7v160006Ev, symObjAddr: 0x52A4, symBinAddr: 0x100007FC8, symSize: 0x54 }
  - { offsetInCU: 0x14530, offset: 0x14530, size: 0x8, addend: 0x0, symName: __ZNKSt3__112basic_stringIcNS_11char_traitsIcEENS_9allocatorIcEEE18__get_long_pointerB7v160006Ev, symObjAddr: 0x52F8, symBinAddr: 0x10000801C, symSize: 0x28 }
  - { offsetInCU: 0x14555, offset: 0x14555, size: 0x8, addend: 0x0, symName: __ZNKSt3__112basic_stringIcNS_11char_traitsIcEENS_9allocatorIcEEE19__get_short_pointerB7v160006Ev, symObjAddr: 0x5320, symBinAddr: 0x100008044, symSize: 0x28 }
  - { offsetInCU: 0x1457A, offset: 0x1457A, size: 0x8, addend: 0x0, symName: __ZNSt3__114pointer_traitsIPKcE10pointer_toB7v160006ERS1_, symObjAddr: 0x5348, symBinAddr: 0x10000806C, symSize: 0x14 }
  - { offsetInCU: 0x1459D, offset: 0x1459D, size: 0x8, addend: 0x0, symName: __ZNSt3__119ostreambuf_iteratorIcNS_11char_traitsIcEEEC2B7v160006ERNS_13basic_ostreamIcS2_EE, symObjAddr: 0x535C, symBinAddr: 0x100008080, symSize: 0x54 }
  - { offsetInCU: 0x145D3, offset: 0x145D3, size: 0x8, addend: 0x0, symName: __ZNKSt3__19basic_iosIcNS_11char_traitsIcEEE5widenB7v160006Ec, symObjAddr: 0x53B0, symBinAddr: 0x1000080D4, symSize: 0x84 }
  - { offsetInCU: 0x14640, offset: 0x14640, size: 0x8, addend: 0x0, symName: __ZNKSt3__15ctypeIcE5widenB7v160006Ec, symObjAddr: 0x5460, symBinAddr: 0x100008184, symSize: 0x38 }
  - { offsetInCU: 0x14674, offset: 0x14674, size: 0x8, addend: 0x0, symName: __ZNSt3__16vectorIP6SommetNS_9allocatorIS2_EEE9__end_capB7v160006Ev, symObjAddr: 0x54BC, symBinAddr: 0x1000081E0, symSize: 0x28 }
  - { offsetInCU: 0x14699, offset: 0x14699, size: 0x8, addend: 0x0, symName: __ZNSt3__16vectorIP6SommetNS_9allocatorIS2_EEE22__construct_one_at_endB7v160006IJRKS2_EEEvDpOT_, symObjAddr: 0x54E4, symBinAddr: 0x100008208, symSize: 0x90 }
  - { offsetInCU: 0x146E6, offset: 0x146E6, size: 0x8, addend: 0x0, symName: __ZNSt3__16vectorIP6SommetNS_9allocatorIS2_EEE21__push_back_slow_pathIRKS2_EEvOT_, symObjAddr: 0x5574, symBinAddr: 0x100008298, symSize: 0xD8 }
  - { offsetInCU: 0x14743, offset: 0x14743, size: 0x8, addend: 0x0, symName: __ZNSt3__117__compressed_pairIPP6SommetNS_9allocatorIS2_EEE5firstB7v160006Ev, symObjAddr: 0x564C, symBinAddr: 0x100008370, symSize: 0x24 }
  - { offsetInCU: 0x14768, offset: 0x14768, size: 0x8, addend: 0x0, symName: __ZNSt3__122__compressed_pair_elemIPP6SommetLi0ELb0EE5__getB7v160006Ev, symObjAddr: 0x5670, symBinAddr: 0x100008394, symSize: 0x14 }
  - { offsetInCU: 0x147A6, offset: 0x147A6, size: 0x8, addend: 0x0, symName: __ZNSt3__16vectorIP6SommetNS_9allocatorIS2_EEE21_ConstructTransactionC1B7v160006ERS5_m, symObjAddr: 0x5684, symBinAddr: 0x1000083A8, symSize: 0x3C }
  - { offsetInCU: 0x147ED, offset: 0x147ED, size: 0x8, addend: 0x0, symName: __ZNSt3__116allocator_traitsINS_9allocatorIP6SommetEEE9constructB7v160006IS3_JRKS3_EvEEvRS4_PT_DpOT0_, symObjAddr: 0x56C0, symBinAddr: 0x1000083E4, symSize: 0x34 }
  - { offsetInCU: 0x14844, offset: 0x14844, size: 0x8, addend: 0x0, symName: __ZNSt3__16vectorIP6SommetNS_9allocatorIS2_EEE21_ConstructTransactionD1B7v160006Ev, symObjAddr: 0x56F4, symBinAddr: 0x100008418, symSize: 0x2C }
  - { offsetInCU: 0x1486D, offset: 0x1486D, size: 0x8, addend: 0x0, symName: __ZNSt3__16vectorIP6SommetNS_9allocatorIS2_EEE21_ConstructTransactionC2B7v160006ERS5_m, symObjAddr: 0x5720, symBinAddr: 0x100008444, symSize: 0x44 }
  - { offsetInCU: 0x148B4, offset: 0x148B4, size: 0x8, addend: 0x0, symName: __ZNSt3__19allocatorIP6SommetE9constructB7v160006IS2_JRKS2_EEEvPT_DpOT0_, symObjAddr: 0x5764, symBinAddr: 0x100008488, symSize: 0x28 }
  - { offsetInCU: 0x14909, offset: 0x14909, size: 0x8, addend: 0x0, symName: __ZNSt3__16vectorIP6SommetNS_9allocatorIS2_EEE21_ConstructTransactionD2B7v160006Ev, symObjAddr: 0x578C, symBinAddr: 0x1000084B0, symSize: 0x20 }
  - { offsetInCU: 0x14931, offset: 0x14931, size: 0x8, addend: 0x0, symName: __ZNKSt3__16vectorIP6SommetNS_9allocatorIS2_EEE11__recommendB7v160006Em, symObjAddr: 0x57AC, symBinAddr: 0x1000084D0, symSize: 0xB4 }
  - { offsetInCU: 0x14985, offset: 0x14985, size: 0x8, addend: 0x0, symName: __ZNSt3__114__split_bufferIP6SommetRNS_9allocatorIS2_EEEC1EmmS5_, symObjAddr: 0x5860, symBinAddr: 0x100008584, symSize: 0x44 }
  - { offsetInCU: 0x149DA, offset: 0x149DA, size: 0x8, addend: 0x0, symName: __ZNSt3__114__split_bufferIP6SommetRNS_9allocatorIS2_EEED1Ev, symObjAddr: 0x59BC, symBinAddr: 0x1000086E0, symSize: 0x2C }
  - { offsetInCU: 0x14A04, offset: 0x14A04, size: 0x8, addend: 0x0, symName: __ZNKSt3__16vectorIP6SommetNS_9allocatorIS2_EEE8max_sizeEv, symObjAddr: 0x59E8, symBinAddr: 0x10000870C, symSize: 0x60 }
  - { offsetInCU: 0x14A2B, offset: 0x14A2B, size: 0x8, addend: 0x0, symName: __ZNKSt3__16vectorIP6SommetNS_9allocatorIS2_EEE20__throw_length_errorB7v160006Ev, symObjAddr: 0x5A48, symBinAddr: 0x10000876C, symSize: 0x1C }
  - { offsetInCU: 0x14A5A, offset: 0x14A5A, size: 0x8, addend: 0x0, symName: __ZNSt3__116allocator_traitsINS_9allocatorIP6SommetEEE8max_sizeB7v160006IS4_vEEmRKS4_, symObjAddr: 0x5A64, symBinAddr: 0x100008788, symSize: 0x24 }
  - { offsetInCU: 0x14A88, offset: 0x14A88, size: 0x8, addend: 0x0, symName: __ZNKSt3__16vectorIP6SommetNS_9allocatorIS2_EEE7__allocB7v160006Ev, symObjAddr: 0x5A88, symBinAddr: 0x1000087AC, symSize: 0x28 }
  - { offsetInCU: 0x14AAD, offset: 0x14AAD, size: 0x8, addend: 0x0, symName: __ZNKSt3__19allocatorIP6SommetE8max_sizeB7v160006Ev, symObjAddr: 0x5AB0, symBinAddr: 0x1000087D4, symSize: 0x14 }
  - { offsetInCU: 0x14AD2, offset: 0x14AD2, size: 0x8, addend: 0x0, symName: __ZNKSt3__117__compressed_pairIPP6SommetNS_9allocatorIS2_EEE6secondB7v160006Ev, symObjAddr: 0x5AC4, symBinAddr: 0x1000087E8, symSize: 0x24 }
  - { offsetInCU: 0x14AF7, offset: 0x14AF7, size: 0x8, addend: 0x0, symName: __ZNKSt3__122__compressed_pair_elemINS_9allocatorIP6SommetEELi1ELb1EE5__getB7v160006Ev, symObjAddr: 0x5AE8, symBinAddr: 0x10000880C, symSize: 0x14 }
  - { offsetInCU: 0x14B1C, offset: 0x14B1C, size: 0x8, addend: 0x0, symName: __ZNSt3__114__split_bufferIP6SommetRNS_9allocatorIS2_EEEC2EmmS5_, symObjAddr: 0x5AFC, symBinAddr: 0x100008820, symSize: 0xD4 }
  - { offsetInCU: 0x14B8F, offset: 0x14B8F, size: 0x8, addend: 0x0, symName: __ZNSt3__117__compressed_pairIPP6SommetRNS_9allocatorIS2_EEEC1B7v160006IDnS6_EEOT_OT0_, symObjAddr: 0x5BD0, symBinAddr: 0x1000088F4, symSize: 0x3C }
  - { offsetInCU: 0x14BE6, offset: 0x14BE6, size: 0x8, addend: 0x0, symName: __ZNSt3__114__split_bufferIP6SommetRNS_9allocatorIS2_EEE7__allocB7v160006Ev, symObjAddr: 0x5C4C, symBinAddr: 0x100008970, symSize: 0x28 }
  - { offsetInCU: 0x14C0B, offset: 0x14C0B, size: 0x8, addend: 0x0, symName: __ZNSt3__114__split_bufferIP6SommetRNS_9allocatorIS2_EEE9__end_capB7v160006Ev, symObjAddr: 0x5C74, symBinAddr: 0x100008998, symSize: 0x28 }
  - { offsetInCU: 0x14C30, offset: 0x14C30, size: 0x8, addend: 0x0, symName: __ZNSt3__117__compressed_pairIPP6SommetRNS_9allocatorIS2_EEEC2B7v160006IDnS6_EEOT_OT0_, symObjAddr: 0x5C9C, symBinAddr: 0x1000089C0, symSize: 0x48 }
  - { offsetInCU: 0x14C87, offset: 0x14C87, size: 0x8, addend: 0x0, symName: __ZNSt3__122__compressed_pair_elemIRNS_9allocatorIP6SommetEELi1ELb0EEC2B7v160006IS5_vEEOT_, symObjAddr: 0x5CE4, symBinAddr: 0x100008A08, symSize: 0x20 }
  - { offsetInCU: 0x14CC8, offset: 0x14CC8, size: 0x8, addend: 0x0, symName: __ZNSt3__19allocatorIP6SommetE8allocateB7v160006Em, symObjAddr: 0x5D04, symBinAddr: 0x100008A28, symSize: 0x58 }
  - { offsetInCU: 0x14CFB, offset: 0x14CFB, size: 0x8, addend: 0x0, symName: __ZNSt3__117__compressed_pairIPP6SommetRNS_9allocatorIS2_EEE6secondB7v160006Ev, symObjAddr: 0x5D5C, symBinAddr: 0x100008A80, symSize: 0x28 }
  - { offsetInCU: 0x14D20, offset: 0x14D20, size: 0x8, addend: 0x0, symName: __ZNSt3__122__compressed_pair_elemIRNS_9allocatorIP6SommetEELi1ELb0EE5__getB7v160006Ev, symObjAddr: 0x5D84, symBinAddr: 0x100008AA8, symSize: 0x18 }
  - { offsetInCU: 0x14D45, offset: 0x14D45, size: 0x8, addend: 0x0, symName: __ZNSt3__117__compressed_pairIPP6SommetRNS_9allocatorIS2_EEE5firstB7v160006Ev, symObjAddr: 0x5D9C, symBinAddr: 0x100008AC0, symSize: 0x24 }
  - { offsetInCU: 0x14D6A, offset: 0x14D6A, size: 0x8, addend: 0x0, symName: __ZNSt3__116reverse_iteratorIPP6SommetEC1B7v160006ES3_, symObjAddr: 0x5E38, symBinAddr: 0x100008B5C, symSize: 0x34 }
  - { offsetInCU: 0x14DA1, offset: 0x14DA1, size: 0x8, addend: 0x0, symName: __ZNKSt3__116reverse_iteratorIPP6SommetE4baseB7v160006Ev, symObjAddr: 0x5E6C, symBinAddr: 0x100008B90, symSize: 0x18 }
  - { offsetInCU: 0x14DC6, offset: 0x14DC6, size: 0x8, addend: 0x0, symName: __ZNKSt3__16vectorIP6SommetNS_9allocatorIS2_EEE14__annotate_newB7v160006Em, symObjAddr: 0x5EC0, symBinAddr: 0x100008BE4, symSize: 0xAC }
  - { offsetInCU: 0x14E13, offset: 0x14E13, size: 0x8, addend: 0x0, symName: __ZNKSt3__111__move_loopINS_17_ClassicAlgPolicyEEclB7v160006INS_16reverse_iteratorIPP6SommetEES8_S8_EENS_4pairIT_T1_EESA_T0_SB_, symObjAddr: 0x626C, symBinAddr: 0x100008F90, symSize: 0xA0 }
  - { offsetInCU: 0x14E82, offset: 0x14E82, size: 0x8, addend: 0x0, symName: __ZNSt3__18_IterOpsINS_17_ClassicAlgPolicyEE11__iter_moveB7v160006IRNS_16reverse_iteratorIPP6SommetEEEENS_9enable_ifIXsr12is_referenceIDTdeclsr3stdE7declvalIRT_EEEEE5valueEDTclsr3stdE4movedeclsr3stdE7declvalISC_EEEEE4typeEOSB_, symObjAddr: 0x64A0, symBinAddr: 0x1000091C4, symSize: 0x28 }
  - { offsetInCU: 0x14EAE, offset: 0x14EAE, size: 0x8, addend: 0x0, symName: __ZNKSt3__116reverse_iteratorIPP6SommetEdeB7v160006Ev, symObjAddr: 0x64C8, symBinAddr: 0x1000091EC, symSize: 0x28 }
  - { offsetInCU: 0x14EE1, offset: 0x14EE1, size: 0x8, addend: 0x0, symName: __ZNSt3__116reverse_iteratorIPP6SommetEppB7v160006Ev, symObjAddr: 0x64F0, symBinAddr: 0x100009214, symSize: 0x20 }
  - { offsetInCU: 0x14F06, offset: 0x14F06, size: 0x8, addend: 0x0, symName: __ZNSt3__18_IterOpsINS_17_ClassicAlgPolicyEE25__validate_iter_referenceB7v160006IRNS_16reverse_iteratorIPP6SommetEEEEvv, symObjAddr: 0x6510, symBinAddr: 0x100009234, symSize: 0x4 }
  - { offsetInCU: 0x14F24, offset: 0x14F24, size: 0x8, addend: 0x0, symName: __ZNSt3__118__unwrap_iter_implINS_16reverse_iteratorIPP6SommetEELb0EE8__unwrapB7v160006ES5_, symObjAddr: 0x6514, symBinAddr: 0x100009238, symSize: 0x24 }
  - { offsetInCU: 0x14F4C, offset: 0x14F4C, size: 0x8, addend: 0x0, symName: __ZNSt3__14pairINS_16reverse_iteratorIPP6SommetEES5_EC1B7v160006IS5_S5_LPv0EEEOT_OT0_, symObjAddr: 0x6538, symBinAddr: 0x10000925C, symSize: 0x3C }
  - { offsetInCU: 0x14FA9, offset: 0x14FA9, size: 0x8, addend: 0x0, symName: __ZNSt3__14pairINS_16reverse_iteratorIPP6SommetEES5_EC2B7v160006IS5_S5_LPv0EEEOT_OT0_, symObjAddr: 0x6574, symBinAddr: 0x100009298, symSize: 0x34 }
  - { offsetInCU: 0x15006, offset: 0x15006, size: 0x8, addend: 0x0, symName: __ZNSt3__118__unwrap_iter_implINS_16reverse_iteratorIPP6SommetEELb0EE8__rewrapB7v160006ES5_S5_, symObjAddr: 0x65A8, symBinAddr: 0x1000092CC, symSize: 0x2C }
  - { offsetInCU: 0x15034, offset: 0x15034, size: 0x8, addend: 0x0, symName: __ZNSt3__116reverse_iteratorIPP6SommetEC2B7v160006ES3_, symObjAddr: 0x65D4, symBinAddr: 0x1000092F8, symSize: 0x28 }
  - { offsetInCU: 0x1506B, offset: 0x1506B, size: 0x8, addend: 0x0, symName: __ZNSt3__114__split_bufferIP6SommetRNS_9allocatorIS2_EEED2Ev, symObjAddr: 0x65FC, symBinAddr: 0x100009320, symSize: 0x8C }
  - { offsetInCU: 0x15096, offset: 0x15096, size: 0x8, addend: 0x0, symName: __ZNSt3__114__split_bufferIP6SommetRNS_9allocatorIS2_EEE5clearB7v160006Ev, symObjAddr: 0x6688, symBinAddr: 0x1000093AC, symSize: 0x28 }
  - { offsetInCU: 0x150BB, offset: 0x150BB, size: 0x8, addend: 0x0, symName: __ZNKSt3__114__split_bufferIP6SommetRNS_9allocatorIS2_EEE8capacityB7v160006Ev, symObjAddr: 0x66B0, symBinAddr: 0x1000093D4, symSize: 0x40 }
  - { offsetInCU: 0x150E0, offset: 0x150E0, size: 0x8, addend: 0x0, symName: __ZNSt3__114__split_bufferIP6SommetRNS_9allocatorIS2_EEE17__destruct_at_endB7v160006EPS2_, symObjAddr: 0x66F0, symBinAddr: 0x100009414, symSize: 0x2C }
  - { offsetInCU: 0x15112, offset: 0x15112, size: 0x8, addend: 0x0, symName: __ZNSt3__114__split_bufferIP6SommetRNS_9allocatorIS2_EEE17__destruct_at_endB7v160006EPS2_NS_17integral_constantIbLb0EEE, symObjAddr: 0x671C, symBinAddr: 0x100009440, symSize: 0x80 }
  - { offsetInCU: 0x15152, offset: 0x15152, size: 0x8, addend: 0x0, symName: __ZNKSt3__114__split_bufferIP6SommetRNS_9allocatorIS2_EEE9__end_capB7v160006Ev, symObjAddr: 0x679C, symBinAddr: 0x1000094C0, symSize: 0x28 }
  - { offsetInCU: 0x15177, offset: 0x15177, size: 0x8, addend: 0x0, symName: __ZNKSt3__117__compressed_pairIPP6SommetRNS_9allocatorIS2_EEE5firstB7v160006Ev, symObjAddr: 0x67C4, symBinAddr: 0x1000094E8, symSize: 0x24 }
  - { offsetInCU: 0x1519C, offset: 0x1519C, size: 0x8, addend: 0x0, symName: __ZNKSt3__16vectorIP6SommetNS_9allocatorIS2_EEE6cbeginB7v160006Ev, symObjAddr: 0x6830, symBinAddr: 0x100009554, symSize: 0x2C }
  - { offsetInCU: 0x151C1, offset: 0x151C1, size: 0x8, addend: 0x0, symName: __ZNSt3__16vectorIP6SommetNS_9allocatorIS2_EEE17__destruct_at_endB7v160006EPS2_, symObjAddr: 0x685C, symBinAddr: 0x100009580, symSize: 0x60 }
  - { offsetInCU: 0x15204, offset: 0x15204, size: 0x8, addend: 0x0, symName: __ZNSt3__16vectorIP6SommetNS_9allocatorIS2_EEE27__invalidate_iterators_pastB7v160006EPS2_, symObjAddr: 0x68FC, symBinAddr: 0x100009620, symSize: 0x14 }
  - { offsetInCU: 0x1523A, offset: 0x1523A, size: 0x8, addend: 0x0, symName: __ZNKSt3__111__wrap_iterIPKP6SommetE4baseB7v160006Ev, symObjAddr: 0x6910, symBinAddr: 0x100009634, symSize: 0x18 }
  - { offsetInCU: 0x1525E, offset: 0x1525E, size: 0x8, addend: 0x0, symName: __ZNKSt3__16vectorIP6SommetNS_9allocatorIS2_EEE5beginB7v160006Ev, symObjAddr: 0x6928, symBinAddr: 0x10000964C, symSize: 0x30 }
  - { offsetInCU: 0x15285, offset: 0x15285, size: 0x8, addend: 0x0, symName: __ZNKSt3__16vectorIP6SommetNS_9allocatorIS2_EEE11__make_iterB7v160006EPKS2_, symObjAddr: 0x6958, symBinAddr: 0x10000967C, symSize: 0x34 }
  - { offsetInCU: 0x152B9, offset: 0x152B9, size: 0x8, addend: 0x0, symName: __ZNSt3__111__wrap_iterIPKP6SommetEC1B7v160006EPKvS4_, symObjAddr: 0x698C, symBinAddr: 0x1000096B0, symSize: 0x3C }
  - { offsetInCU: 0x152FE, offset: 0x152FE, size: 0x8, addend: 0x0, symName: __ZNSt3__111__wrap_iterIPKP6SommetEC2B7v160006EPKvS4_, symObjAddr: 0x69C8, symBinAddr: 0x1000096EC, symSize: 0x24 }
  - { offsetInCU: 0x15343, offset: 0x15343, size: 0x8, addend: 0x0, symName: __ZNKSt3__16vectorIP6SommetNS_9allocatorIS2_EEE17__annotate_shrinkB7v160006Em, symObjAddr: 0x69EC, symBinAddr: 0x100009710, symSize: 0xB4 }
  - { offsetInCU: 0x1539A, offset: 0x1539A, size: 0x8, addend: 0x0, symName: __ZNKSt3__114__move_trivialclB7v160006IP6SommetS3_Li0EEENS_4pairIPT_PT0_EES6_S6_S8_, symObjAddr: 0x6C3C, symBinAddr: 0x100009960, symSize: 0x48 }
  - { offsetInCU: 0x15406, offset: 0x15406, size: 0x8, addend: 0x0, symName: __ZNSt3__14pairIPP6SommetS3_EC1B7v160006IRS3_S3_LPv0EEEOT_OT0_, symObjAddr: 0x6E04, symBinAddr: 0x100009B28, symSize: 0x3C }
  - { offsetInCU: 0x15463, offset: 0x15463, size: 0x8, addend: 0x0, symName: __ZNSt3__14pairIPP6SommetS3_EC2B7v160006IRS3_S3_LPv0EEEOT_OT0_, symObjAddr: 0x6E40, symBinAddr: 0x100009B64, symSize: 0x34 }
  - { offsetInCU: 0x154C0, offset: 0x154C0, size: 0x8, addend: 0x0, symName: __ZNSt3__118__unwrap_iter_implIPP6SommetLb1EE8__unwrapB7v160006ES3_, symObjAddr: 0x6E74, symBinAddr: 0x100009B98, symSize: 0x24 }
  - { offsetInCU: 0x154E3, offset: 0x154E3, size: 0x8, addend: 0x0, symName: __ZNSt3__14pairIPP6SommetS3_EC1B7v160006IS3_S3_LPv0EEEOT_OT0_, symObjAddr: 0x6E98, symBinAddr: 0x100009BBC, symSize: 0x3C }
  - { offsetInCU: 0x15540, offset: 0x15540, size: 0x8, addend: 0x0, symName: __ZNSt3__14pairIPP6SommetS3_EC2B7v160006IS3_S3_LPv0EEEOT_OT0_, symObjAddr: 0x6ED4, symBinAddr: 0x100009BF8, symSize: 0x34 }
  - { offsetInCU: 0x1559D, offset: 0x1559D, size: 0x8, addend: 0x0, symName: __ZNSt3__118__unwrap_iter_implIPP6SommetLb1EE8__rewrapB7v160006ES3_S3_, symObjAddr: 0x6F08, symBinAddr: 0x100009C2C, symSize: 0x50 }
  - { offsetInCU: 0x155CE, offset: 0x155CE, size: 0x8, addend: 0x0, symName: __ZNSt3__113unordered_setIiNS_4hashIiEENS_8equal_toIiEENS_9allocatorIiEEEC2B7v160006Ev, symObjAddr: 0x6F58, symBinAddr: 0x100009C7C, symSize: 0x3C }
  - { offsetInCU: 0x155F7, offset: 0x155F7, size: 0x8, addend: 0x0, symName: __ZNSt3__112__hash_tableIiNS_4hashIiEENS_8equal_toIiEENS_9allocatorIiEEEC1Ev, symObjAddr: 0x6F94, symBinAddr: 0x100009CB8, symSize: 0x2C }
  - { offsetInCU: 0x15622, offset: 0x15622, size: 0x8, addend: 0x0, symName: __ZNSt3__112__hash_tableIiNS_4hashIiEENS_8equal_toIiEENS_9allocatorIiEEEC2Ev, symObjAddr: 0x6FD0, symBinAddr: 0x100009CF4, symSize: 0x7C }
  - { offsetInCU: 0x1564D, offset: 0x1564D, size: 0x8, addend: 0x0, symName: __ZNSt3__110unique_ptrIA_PNS_16__hash_node_baseIPNS_11__hash_nodeIiPvEEEENS_25__bucket_list_deallocatorINS_9allocatorIS7_EEEEEC1B7v160006ILb1EvEEv, symObjAddr: 0x704C, symBinAddr: 0x100009D70, symSize: 0x2C }
  - { offsetInCU: 0x15681, offset: 0x15681, size: 0x8, addend: 0x0, symName: __ZNSt3__117__compressed_pairINS_16__hash_node_baseIPNS_11__hash_nodeIiPvEEEENS_9allocatorIS4_EEEC1B7v160006ILb1EvEEv, symObjAddr: 0x7078, symBinAddr: 0x100009D9C, symSize: 0x2C }
  - { offsetInCU: 0x156B5, offset: 0x156B5, size: 0x8, addend: 0x0, symName: __ZNSt3__117__compressed_pairImNS_4hashIiEEEC1B7v160006IiNS_18__default_init_tagEEEOT_OT0_, symObjAddr: 0x70A4, symBinAddr: 0x100009DC8, symSize: 0x3C }
  - { offsetInCU: 0x15711, offset: 0x15711, size: 0x8, addend: 0x0, symName: __ZNSt3__117__compressed_pairIfNS_8equal_toIiEEEC1B7v160006IfNS_18__default_init_tagEEEOT_OT0_, symObjAddr: 0x70E0, symBinAddr: 0x100009E04, symSize: 0x3C }
  - { offsetInCU: 0x15768, offset: 0x15768, size: 0x8, addend: 0x0, symName: __ZNSt3__110unique_ptrIA_PNS_16__hash_node_baseIPNS_11__hash_nodeIiPvEEEENS_25__bucket_list_deallocatorINS_9allocatorIS7_EEEEEC2B7v160006ILb1EvEEv, symObjAddr: 0x711C, symBinAddr: 0x100009E40, symSize: 0x3C }
  - { offsetInCU: 0x157A1, offset: 0x157A1, size: 0x8, addend: 0x0, symName: __ZNSt3__117__compressed_pairIPPNS_16__hash_node_baseIPNS_11__hash_nodeIiPvEEEENS_25__bucket_list_deallocatorINS_9allocatorIS7_EEEEEC1B7v160006INS_16__value_init_tagESF_EEOT_OT0_, symObjAddr: 0x7158, symBinAddr: 0x100009E7C, symSize: 0x3C }
  - { offsetInCU: 0x157F8, offset: 0x157F8, size: 0x8, addend: 0x0, symName: __ZNSt3__117__compressed_pairIPPNS_16__hash_node_baseIPNS_11__hash_nodeIiPvEEEENS_25__bucket_list_deallocatorINS_9allocatorIS7_EEEEEC2B7v160006INS_16__value_init_tagESF_EEOT_OT0_, symObjAddr: 0x7194, symBinAddr: 0x100009EB8, symSize: 0x40 }
  - { offsetInCU: 0x1584F, offset: 0x1584F, size: 0x8, addend: 0x0, symName: __ZNSt3__122__compressed_pair_elemIPPNS_16__hash_node_baseIPNS_11__hash_nodeIiPvEEEELi0ELb0EEC2B7v160006ENS_16__value_init_tagE, symObjAddr: 0x71D4, symBinAddr: 0x100009EF8, symSize: 0x18 }
  - { offsetInCU: 0x15883, offset: 0x15883, size: 0x8, addend: 0x0, symName: __ZNSt3__122__compressed_pair_elemINS_25__bucket_list_deallocatorINS_9allocatorIPNS_16__hash_node_baseIPNS_11__hash_nodeIiPvEEEEEEEELi1ELb0EEC2B7v160006ENS_16__value_init_tagE, symObjAddr: 0x71EC, symBinAddr: 0x100009F10, symSize: 0x2C }
  - { offsetInCU: 0x158B7, offset: 0x158B7, size: 0x8, addend: 0x0, symName: __ZNSt3__125__bucket_list_deallocatorINS_9allocatorIPNS_16__hash_node_baseIPNS_11__hash_nodeIiPvEEEEEEEC1B7v160006Ev, symObjAddr: 0x7218, symBinAddr: 0x100009F3C, symSize: 0x2C }
  - { offsetInCU: 0x158E0, offset: 0x158E0, size: 0x8, addend: 0x0, symName: __ZNSt3__125__bucket_list_deallocatorINS_9allocatorIPNS_16__hash_node_baseIPNS_11__hash_nodeIiPvEEEEEEEC2B7v160006Ev, symObjAddr: 0x7244, symBinAddr: 0x100009F68, symSize: 0x40 }
  - { offsetInCU: 0x15909, offset: 0x15909, size: 0x8, addend: 0x0, symName: __ZNSt3__117__compressed_pairImNS_9allocatorIPNS_16__hash_node_baseIPNS_11__hash_nodeIiPvEEEEEEEC1B7v160006IiNS_18__default_init_tagEEEOT_OT0_, symObjAddr: 0x7284, symBinAddr: 0x100009FA8, symSize: 0x3C }
  - { offsetInCU: 0x15960, offset: 0x15960, size: 0x8, addend: 0x0, symName: __ZNSt3__117__compressed_pairImNS_9allocatorIPNS_16__hash_node_baseIPNS_11__hash_nodeIiPvEEEEEEEC2B7v160006IiNS_18__default_init_tagEEEOT_OT0_, symObjAddr: 0x72C0, symBinAddr: 0x100009FE4, symSize: 0x40 }
  - { offsetInCU: 0x159B7, offset: 0x159B7, size: 0x8, addend: 0x0, symName: __ZNSt3__122__compressed_pair_elemImLi0ELb0EEC2B7v160006IivEEOT_, symObjAddr: 0x7300, symBinAddr: 0x10000A024, symSize: 0x24 }
  - { offsetInCU: 0x159F8, offset: 0x159F8, size: 0x8, addend: 0x0, symName: __ZNSt3__122__compressed_pair_elemINS_9allocatorIPNS_16__hash_node_baseIPNS_11__hash_nodeIiPvEEEEEELi1ELb1EEC2B7v160006ENS_18__default_init_tagE, symObjAddr: 0x7324, symBinAddr: 0x10000A048, symSize: 0x2C }
  - { offsetInCU: 0x15A2C, offset: 0x15A2C, size: 0x8, addend: 0x0, symName: __ZNSt3__19allocatorIPNS_16__hash_node_baseIPNS_11__hash_nodeIiPvEEEEEC2B7v160006Ev, symObjAddr: 0x7350, symBinAddr: 0x10000A074, symSize: 0x2C }
  - { offsetInCU: 0x15A55, offset: 0x15A55, size: 0x8, addend: 0x0, symName: __ZNSt3__116__non_trivial_ifILb1ENS_9allocatorIPNS_16__hash_node_baseIPNS_11__hash_nodeIiPvEEEEEEEC2B7v160006Ev, symObjAddr: 0x737C, symBinAddr: 0x10000A0A0, symSize: 0x14 }
  - { offsetInCU: 0x15A7E, offset: 0x15A7E, size: 0x8, addend: 0x0, symName: __ZNSt3__117__compressed_pairINS_16__hash_node_baseIPNS_11__hash_nodeIiPvEEEENS_9allocatorIS4_EEEC2B7v160006ILb1EvEEv, symObjAddr: 0x7390, symBinAddr: 0x10000A0B4, symSize: 0x34 }
  - { offsetInCU: 0x15AB2, offset: 0x15AB2, size: 0x8, addend: 0x0, symName: __ZNSt3__122__compressed_pair_elemINS_16__hash_node_baseIPNS_11__hash_nodeIiPvEEEELi0ELb0EEC2B7v160006ENS_16__value_init_tagE, symObjAddr: 0x73C4, symBinAddr: 0x10000A0E8, symSize: 0x2C }
  - { offsetInCU: 0x15AE6, offset: 0x15AE6, size: 0x8, addend: 0x0, symName: __ZNSt3__122__compressed_pair_elemINS_9allocatorINS_11__hash_nodeIiPvEEEELi1ELb1EEC2B7v160006ENS_16__value_init_tagE, symObjAddr: 0x73F0, symBinAddr: 0x10000A114, symSize: 0x2C }
  - { offsetInCU: 0x15B1A, offset: 0x15B1A, size: 0x8, addend: 0x0, symName: __ZNSt3__116__hash_node_baseIPNS_11__hash_nodeIiPvEEEC1B7v160006Ev, symObjAddr: 0x741C, symBinAddr: 0x10000A140, symSize: 0x2C }
  - { offsetInCU: 0x15B43, offset: 0x15B43, size: 0x8, addend: 0x0, symName: __ZNSt3__116__hash_node_baseIPNS_11__hash_nodeIiPvEEEC2B7v160006Ev, symObjAddr: 0x7448, symBinAddr: 0x10000A16C, symSize: 0x18 }
  - { offsetInCU: 0x15B6C, offset: 0x15B6C, size: 0x8, addend: 0x0, symName: __ZNSt3__19allocatorINS_11__hash_nodeIiPvEEEC2B7v160006Ev, symObjAddr: 0x7460, symBinAddr: 0x10000A184, symSize: 0x2C }
  - { offsetInCU: 0x15B95, offset: 0x15B95, size: 0x8, addend: 0x0, symName: __ZNSt3__116__non_trivial_ifILb1ENS_9allocatorINS_11__hash_nodeIiPvEEEEEC2B7v160006Ev, symObjAddr: 0x748C, symBinAddr: 0x10000A1B0, symSize: 0x14 }
  - { offsetInCU: 0x15BBE, offset: 0x15BBE, size: 0x8, addend: 0x0, symName: __ZNSt3__117__compressed_pairImNS_4hashIiEEEC2B7v160006IiNS_18__default_init_tagEEEOT_OT0_, symObjAddr: 0x74A0, symBinAddr: 0x10000A1C4, symSize: 0x40 }
  - { offsetInCU: 0x15C15, offset: 0x15C15, size: 0x8, addend: 0x0, symName: __ZNSt3__122__compressed_pair_elemINS_4hashIiEELi1ELb1EEC2B7v160006ENS_18__default_init_tagE, symObjAddr: 0x74E0, symBinAddr: 0x10000A204, symSize: 0x14 }
  - { offsetInCU: 0x15C49, offset: 0x15C49, size: 0x8, addend: 0x0, symName: __ZNSt3__117__compressed_pairIfNS_8equal_toIiEEEC2B7v160006IfNS_18__default_init_tagEEEOT_OT0_, symObjAddr: 0x74F4, symBinAddr: 0x10000A218, symSize: 0x40 }
  - { offsetInCU: 0x15CA0, offset: 0x15CA0, size: 0x8, addend: 0x0, symName: __ZNSt3__122__compressed_pair_elemIfLi0ELb0EEC2B7v160006IfvEEOT_, symObjAddr: 0x7534, symBinAddr: 0x10000A258, symSize: 0x24 }
  - { offsetInCU: 0x15CE1, offset: 0x15CE1, size: 0x8, addend: 0x0, symName: __ZNSt3__122__compressed_pair_elemINS_8equal_toIiEELi1ELb1EEC2B7v160006ENS_18__default_init_tagE, symObjAddr: 0x7558, symBinAddr: 0x10000A27C, symSize: 0x14 }
  - { offsetInCU: 0x15D15, offset: 0x15D15, size: 0x8, addend: 0x0, symName: __ZNSt3__113unordered_setIiNS_4hashIiEENS_8equal_toIiEENS_9allocatorIiEEED2B7v160006Ev, symObjAddr: 0x756C, symBinAddr: 0x10000A290, symSize: 0x2C }
  - { offsetInCU: 0x15D3E, offset: 0x15D3E, size: 0x8, addend: 0x0, symName: __ZNSt3__112__hash_tableIiNS_4hashIiEENS_8equal_toIiEENS_9allocatorIiEEED1Ev, symObjAddr: 0x7598, symBinAddr: 0x10000A2BC, symSize: 0x2C }
  - { offsetInCU: 0x15D69, offset: 0x15D69, size: 0x8, addend: 0x0, symName: __ZNSt3__112__hash_tableIiNS_4hashIiEENS_8equal_toIiEENS_9allocatorIiEEED2Ev, symObjAddr: 0x75C4, symBinAddr: 0x10000A2E8, symSize: 0x58 }
  - { offsetInCU: 0x15D93, offset: 0x15D93, size: 0x8, addend: 0x0, symName: __ZNSt3__112__hash_tableIiNS_4hashIiEENS_8equal_toIiEENS_9allocatorIiEEE17__deallocate_nodeEPNS_16__hash_node_baseIPNS_11__hash_nodeIiPvEEEE, symObjAddr: 0x761C, symBinAddr: 0x10000A340, symSize: 0xA8 }
  - { offsetInCU: 0x15DFC, offset: 0x15DFC, size: 0x8, addend: 0x0, symName: __ZNSt3__117__compressed_pairINS_16__hash_node_baseIPNS_11__hash_nodeIiPvEEEENS_9allocatorIS4_EEE5firstB7v160006Ev, symObjAddr: 0x76C4, symBinAddr: 0x10000A3E8, symSize: 0x24 }
  - { offsetInCU: 0x15E21, offset: 0x15E21, size: 0x8, addend: 0x0, symName: __ZNSt3__110unique_ptrIA_PNS_16__hash_node_baseIPNS_11__hash_nodeIiPvEEEENS_25__bucket_list_deallocatorINS_9allocatorIS7_EEEEED1B7v160006Ev, symObjAddr: 0x76F8, symBinAddr: 0x10000A41C, symSize: 0x2C }
  - { offsetInCU: 0x15E4A, offset: 0x15E4A, size: 0x8, addend: 0x0, symName: __ZNSt3__112__hash_tableIiNS_4hashIiEENS_8equal_toIiEENS_9allocatorIiEEE12__node_allocB7v160006Ev, symObjAddr: 0x7724, symBinAddr: 0x10000A448, symSize: 0x28 }
  - { offsetInCU: 0x15E6F, offset: 0x15E6F, size: 0x8, addend: 0x0, symName: __ZNSt3__116__hash_node_baseIPNS_11__hash_nodeIiPvEEE8__upcastB7v160006Ev, symObjAddr: 0x774C, symBinAddr: 0x10000A470, symSize: 0x24 }
  - { offsetInCU: 0x15E99, offset: 0x15E99, size: 0x8, addend: 0x0, symName: __ZNSt3__116allocator_traitsINS_9allocatorINS_11__hash_nodeIiPvEEEEE7destroyB7v160006IivvEEvRS5_PT_, symObjAddr: 0x7770, symBinAddr: 0x10000A494, symSize: 0x14 }
  - { offsetInCU: 0x15ED3, offset: 0x15ED3, size: 0x8, addend: 0x0, symName: __ZNSt3__122__hash_key_value_typesIiE9__get_ptrB7v160006ERi, symObjAddr: 0x7784, symBinAddr: 0x10000A4A8, symSize: 0x14 }
  - { offsetInCU: 0x15EF6, offset: 0x15EF6, size: 0x8, addend: 0x0, symName: __ZNSt3__116allocator_traitsINS_9allocatorINS_11__hash_nodeIiPvEEEEE10deallocateB7v160006ERS5_PS4_m, symObjAddr: 0x7798, symBinAddr: 0x10000A4BC, symSize: 0x34 }
  - { offsetInCU: 0x15F38, offset: 0x15F38, size: 0x8, addend: 0x0, symName: __ZNSt3__117__compressed_pairINS_16__hash_node_baseIPNS_11__hash_nodeIiPvEEEENS_9allocatorIS4_EEE6secondB7v160006Ev, symObjAddr: 0x77CC, symBinAddr: 0x10000A4F0, symSize: 0x24 }
  - { offsetInCU: 0x15F5D, offset: 0x15F5D, size: 0x8, addend: 0x0, symName: __ZNSt3__122__compressed_pair_elemINS_9allocatorINS_11__hash_nodeIiPvEEEELi1ELb1EE5__getB7v160006Ev, symObjAddr: 0x77F0, symBinAddr: 0x10000A514, symSize: 0x14 }
  - { offsetInCU: 0x15F82, offset: 0x15F82, size: 0x8, addend: 0x0, symName: __ZNSt3__114pointer_traitsIPNS_16__hash_node_baseIPNS_11__hash_nodeIiPvEEEEE10pointer_toB7v160006ERS6_, symObjAddr: 0x7804, symBinAddr: 0x10000A528, symSize: 0x14 }
  - { offsetInCU: 0x15FA5, offset: 0x15FA5, size: 0x8, addend: 0x0, symName: __ZNSt3__19allocatorINS_11__hash_nodeIiPvEEE10deallocateB7v160006EPS3_m, symObjAddr: 0x7818, symBinAddr: 0x10000A53C, symSize: 0x44 }
  - { offsetInCU: 0x15FE6, offset: 0x15FE6, size: 0x8, addend: 0x0, symName: __ZNSt3__122__compressed_pair_elemINS_16__hash_node_baseIPNS_11__hash_nodeIiPvEEEELi0ELb0EE5__getB7v160006Ev, symObjAddr: 0x785C, symBinAddr: 0x10000A580, symSize: 0x14 }
  - { offsetInCU: 0x1600B, offset: 0x1600B, size: 0x8, addend: 0x0, symName: __ZNSt3__110unique_ptrIA_PNS_16__hash_node_baseIPNS_11__hash_nodeIiPvEEEENS_25__bucket_list_deallocatorINS_9allocatorIS7_EEEEED2B7v160006Ev, symObjAddr: 0x7870, symBinAddr: 0x10000A594, symSize: 0x30 }
  - { offsetInCU: 0x16034, offset: 0x16034, size: 0x8, addend: 0x0, symName: __ZNSt3__110unique_ptrIA_PNS_16__hash_node_baseIPNS_11__hash_nodeIiPvEEEENS_25__bucket_list_deallocatorINS_9allocatorIS7_EEEEE5resetB7v160006EDn, symObjAddr: 0x78A0, symBinAddr: 0x10000A5C4, symSize: 0x6C }
  - { offsetInCU: 0x16073, offset: 0x16073, size: 0x8, addend: 0x0, symName: __ZNSt3__117__compressed_pairIPPNS_16__hash_node_baseIPNS_11__hash_nodeIiPvEEEENS_25__bucket_list_deallocatorINS_9allocatorIS7_EEEEE5firstB7v160006Ev, symObjAddr: 0x790C, symBinAddr: 0x10000A630, symSize: 0x24 }
  - { offsetInCU: 0x16098, offset: 0x16098, size: 0x8, addend: 0x0, symName: __ZNSt3__117__compressed_pairIPPNS_16__hash_node_baseIPNS_11__hash_nodeIiPvEEEENS_25__bucket_list_deallocatorINS_9allocatorIS7_EEEEE6secondB7v160006Ev, symObjAddr: 0x7930, symBinAddr: 0x10000A654, symSize: 0x28 }
  - { offsetInCU: 0x160BD, offset: 0x160BD, size: 0x8, addend: 0x0, symName: __ZNSt3__125__bucket_list_deallocatorINS_9allocatorIPNS_16__hash_node_baseIPNS_11__hash_nodeIiPvEEEEEEEclB7v160006EPS8_, symObjAddr: 0x7958, symBinAddr: 0x10000A67C, symSize: 0x58 }
  - { offsetInCU: 0x160F1, offset: 0x160F1, size: 0x8, addend: 0x0, symName: __ZNSt3__122__compressed_pair_elemIPPNS_16__hash_node_baseIPNS_11__hash_nodeIiPvEEEELi0ELb0EE5__getB7v160006Ev, symObjAddr: 0x79B0, symBinAddr: 0x10000A6D4, symSize: 0x14 }
  - { offsetInCU: 0x16116, offset: 0x16116, size: 0x8, addend: 0x0, symName: __ZNSt3__122__compressed_pair_elemINS_25__bucket_list_deallocatorINS_9allocatorIPNS_16__hash_node_baseIPNS_11__hash_nodeIiPvEEEEEEEELi1ELb0EE5__getB7v160006Ev, symObjAddr: 0x79C4, symBinAddr: 0x10000A6E8, symSize: 0x14 }
  - { offsetInCU: 0x1613B, offset: 0x1613B, size: 0x8, addend: 0x0, symName: __ZNSt3__116allocator_traitsINS_9allocatorIPNS_16__hash_node_baseIPNS_11__hash_nodeIiPvEEEEEEE10deallocateB7v160006ERS9_PS8_m, symObjAddr: 0x79D8, symBinAddr: 0x10000A6FC, symSize: 0x34 }
  - { offsetInCU: 0x1617D, offset: 0x1617D, size: 0x8, addend: 0x0, symName: __ZNSt3__125__bucket_list_deallocatorINS_9allocatorIPNS_16__hash_node_baseIPNS_11__hash_nodeIiPvEEEEEEE7__allocB7v160006Ev, symObjAddr: 0x7A0C, symBinAddr: 0x10000A730, symSize: 0x24 }
  - { offsetInCU: 0x161A2, offset: 0x161A2, size: 0x8, addend: 0x0, symName: __ZNSt3__125__bucket_list_deallocatorINS_9allocatorIPNS_16__hash_node_baseIPNS_11__hash_nodeIiPvEEEEEEE4sizeB7v160006Ev, symObjAddr: 0x7A30, symBinAddr: 0x10000A754, symSize: 0x24 }
  - { offsetInCU: 0x161C7, offset: 0x161C7, size: 0x8, addend: 0x0, symName: __ZNSt3__19allocatorIPNS_16__hash_node_baseIPNS_11__hash_nodeIiPvEEEEE10deallocateB7v160006EPS7_m, symObjAddr: 0x7A54, symBinAddr: 0x10000A778, symSize: 0x40 }
  - { offsetInCU: 0x16208, offset: 0x16208, size: 0x8, addend: 0x0, symName: __ZNSt3__117__compressed_pairImNS_9allocatorIPNS_16__hash_node_baseIPNS_11__hash_nodeIiPvEEEEEEE6secondB7v160006Ev, symObjAddr: 0x7A94, symBinAddr: 0x10000A7B8, symSize: 0x24 }
  - { offsetInCU: 0x1622D, offset: 0x1622D, size: 0x8, addend: 0x0, symName: __ZNSt3__122__compressed_pair_elemINS_9allocatorIPNS_16__hash_node_baseIPNS_11__hash_nodeIiPvEEEEEELi1ELb1EE5__getB7v160006Ev, symObjAddr: 0x7AB8, symBinAddr: 0x10000A7DC, symSize: 0x14 }
  - { offsetInCU: 0x16252, offset: 0x16252, size: 0x8, addend: 0x0, symName: __ZNSt3__117__compressed_pairImNS_9allocatorIPNS_16__hash_node_baseIPNS_11__hash_nodeIiPvEEEEEEE5firstB7v160006Ev, symObjAddr: 0x7ACC, symBinAddr: 0x10000A7F0, symSize: 0x24 }
  - { offsetInCU: 0x16277, offset: 0x16277, size: 0x8, addend: 0x0, symName: __ZNSt3__122__compressed_pair_elemImLi0ELb0EE5__getB7v160006Ev, symObjAddr: 0x7AF0, symBinAddr: 0x10000A814, symSize: 0x14 }
  - { offsetInCU: 0x1629C, offset: 0x1629C, size: 0x8, addend: 0x0, symName: __ZNKSt3__113basic_filebufIcNS_11char_traitsIcEEE7is_openEv, symObjAddr: 0x7B04, symBinAddr: 0x10000A828, symSize: 0x24 }
  - { offsetInCU: 0x162C3, offset: 0x162C3, size: 0x8, addend: 0x0, symName: __ZNSt3__16vectorIiNS_9allocatorIiEEEC2ERKS3_, symObjAddr: 0x7B28, symBinAddr: 0x10000A84C, symSize: 0x110 }
  - { offsetInCU: 0x16321, offset: 0x16321, size: 0x8, addend: 0x0, symName: __ZNSt3__116allocator_traitsINS_9allocatorIiEEE37select_on_container_copy_constructionB7v160006IS2_vvEES2_RKS2_, symObjAddr: 0x7C38, symBinAddr: 0x10000A95C, symSize: 0x10 }
  - { offsetInCU: 0x16355, offset: 0x16355, size: 0x8, addend: 0x0, symName: __ZNSt3__117__compressed_pairIPiNS_9allocatorIiEEEC1B7v160006IDnS3_EEOT_OT0_, symObjAddr: 0x7C48, symBinAddr: 0x10000A96C, symSize: 0x3C }
  - { offsetInCU: 0x163AC, offset: 0x163AC, size: 0x8, addend: 0x0, symName: __ZNSt3__16vectorIiNS_9allocatorIiEEE11__vallocateB7v160006Em, symObjAddr: 0x7CC4, symBinAddr: 0x10000A9E8, symSize: 0xAC }
  - { offsetInCU: 0x163EE, offset: 0x163EE, size: 0x8, addend: 0x0, symName: __ZNSt3__16vectorIiNS_9allocatorIiEEE18__construct_at_endIPiLi0EEEvT_S6_m, symObjAddr: 0x7D70, symBinAddr: 0x10000AA94, symSize: 0x8C }
  - { offsetInCU: 0x16460, offset: 0x16460, size: 0x8, addend: 0x0, symName: __ZNSt3__128__exception_guard_exceptionsINS_6vectorIiNS_9allocatorIiEEE16__destroy_vectorEE10__completeB7v160006Ev, symObjAddr: 0x7DFC, symBinAddr: 0x10000AB20, symSize: 0x1C }
  - { offsetInCU: 0x16485, offset: 0x16485, size: 0x8, addend: 0x0, symName: __ZNSt3__128__exception_guard_exceptionsINS_6vectorIiNS_9allocatorIiEEE16__destroy_vectorEED1B7v160006Ev, symObjAddr: 0x7E18, symBinAddr: 0x10000AB3C, symSize: 0x2C }
  - { offsetInCU: 0x164AE, offset: 0x164AE, size: 0x8, addend: 0x0, symName: __ZNSt3__117__compressed_pairIPiNS_9allocatorIiEEEC2B7v160006IDnS3_EEOT_OT0_, symObjAddr: 0x7E44, symBinAddr: 0x10000AB68, symSize: 0x44 }
  - { offsetInCU: 0x16505, offset: 0x16505, size: 0x8, addend: 0x0, symName: __ZNSt3__122__compressed_pair_elemINS_9allocatorIiEELi1ELb1EEC2B7v160006IS2_vEEOT_, symObjAddr: 0x7E88, symBinAddr: 0x10000ABAC, symSize: 0x18 }
  - { offsetInCU: 0x16546, offset: 0x16546, size: 0x8, addend: 0x0, symName: __ZNSt3__128__exception_guard_exceptionsINS_6vectorIiNS_9allocatorIiEEE16__destroy_vectorEEC1B7v160006ES5_, symObjAddr: 0x7EA0, symBinAddr: 0x10000ABC4, symSize: 0x34 }
  - { offsetInCU: 0x1657D, offset: 0x1657D, size: 0x8, addend: 0x0, symName: __ZNSt3__128__exception_guard_exceptionsINS_6vectorIiNS_9allocatorIiEEE16__destroy_vectorEEC2B7v160006ES5_, symObjAddr: 0x7ED4, symBinAddr: 0x10000ABF8, symSize: 0x24 }
  - { offsetInCU: 0x165B4, offset: 0x165B4, size: 0x8, addend: 0x0, symName: __ZNSt3__129_AllocatorDestroyRangeReverseINS_9allocatorIiEEPiEC1B7v160006ERS2_RS3_S6_, symObjAddr: 0x8038, symBinAddr: 0x10000AD5C, symSize: 0x44 }
  - { offsetInCU: 0x1660A, offset: 0x1660A, size: 0x8, addend: 0x0, symName: __ZNSt3__116allocator_traitsINS_9allocatorIiEEE9constructB7v160006IiJRiEvEEvRS2_PT_DpOT0_, symObjAddr: 0x807C, symBinAddr: 0x10000ADA0, symSize: 0x34 }
  - { offsetInCU: 0x16661, offset: 0x16661, size: 0x8, addend: 0x0, symName: __ZNSt3__128__exception_guard_exceptionsINS_29_AllocatorDestroyRangeReverseINS_9allocatorIiEEPiEEE10__completeB7v160006Ev, symObjAddr: 0x80B0, symBinAddr: 0x10000ADD4, symSize: 0x1C }
  - { offsetInCU: 0x16686, offset: 0x16686, size: 0x8, addend: 0x0, symName: __ZNSt3__128__exception_guard_exceptionsINS_29_AllocatorDestroyRangeReverseINS_9allocatorIiEEPiEEED1B7v160006Ev, symObjAddr: 0x80CC, symBinAddr: 0x10000ADF0, symSize: 0x2C }
  - { offsetInCU: 0x166AF, offset: 0x166AF, size: 0x8, addend: 0x0, symName: __ZNSt3__128__exception_guard_exceptionsINS_29_AllocatorDestroyRangeReverseINS_9allocatorIiEEPiEEEC1B7v160006ES5_, symObjAddr: 0x80F8, symBinAddr: 0x10000AE1C, symSize: 0x34 }
  - { offsetInCU: 0x166E7, offset: 0x166E7, size: 0x8, addend: 0x0, symName: __ZNSt3__128__exception_guard_exceptionsINS_29_AllocatorDestroyRangeReverseINS_9allocatorIiEEPiEEEC2B7v160006ES5_, symObjAddr: 0x812C, symBinAddr: 0x10000AE50, symSize: 0x30 }
  - { offsetInCU: 0x1671F, offset: 0x1671F, size: 0x8, addend: 0x0, symName: __ZNSt3__129_AllocatorDestroyRangeReverseINS_9allocatorIiEEPiEC2B7v160006ERS2_RS3_S6_, symObjAddr: 0x815C, symBinAddr: 0x10000AE80, symSize: 0x38 }
  - { offsetInCU: 0x16775, offset: 0x16775, size: 0x8, addend: 0x0, symName: __ZNSt3__19allocatorIiE9constructB7v160006IiJRiEEEvPT_DpOT0_, symObjAddr: 0x8194, symBinAddr: 0x10000AEB8, symSize: 0x28 }
  - { offsetInCU: 0x167CA, offset: 0x167CA, size: 0x8, addend: 0x0, symName: __ZNSt3__128__exception_guard_exceptionsINS_29_AllocatorDestroyRangeReverseINS_9allocatorIiEEPiEEED2B7v160006Ev, symObjAddr: 0x81BC, symBinAddr: 0x10000AEE0, symSize: 0x50 }
  - { offsetInCU: 0x167F3, offset: 0x167F3, size: 0x8, addend: 0x0, symName: __ZNKSt3__129_AllocatorDestroyRangeReverseINS_9allocatorIiEEPiEclB7v160006Ev, symObjAddr: 0x820C, symBinAddr: 0x10000AF30, symSize: 0x68 }
  - { offsetInCU: 0x1681D, offset: 0x1681D, size: 0x8, addend: 0x0, symName: __ZNSt3__119__to_address_helperINS_16reverse_iteratorIPiEEvE6__callB7v160006ERKS3_, symObjAddr: 0x8308, symBinAddr: 0x10000B02C, symSize: 0x38 }
  - { offsetInCU: 0x16840, offset: 0x16840, size: 0x8, addend: 0x0, symName: __ZNKSt3__116reverse_iteratorIPiEptB7v160006Ev, symObjAddr: 0x8340, symBinAddr: 0x10000B064, symSize: 0x24 }
  - { offsetInCU: 0x16865, offset: 0x16865, size: 0x8, addend: 0x0, symName: __ZNSt3__128__exception_guard_exceptionsINS_6vectorIiNS_9allocatorIiEEE16__destroy_vectorEED2B7v160006Ev, symObjAddr: 0x8364, symBinAddr: 0x10000B088, symSize: 0x50 }
  - { offsetInCU: 0x1688E, offset: 0x1688E, size: 0x8, addend: 0x0, symName: __ZNKSt3__18ios_base3eofB7v160006Ev, symObjAddr: 0x83B4, symBinAddr: 0x10000B0D8, symSize: 0x24 }
...
